

HI-TECH Software PIC LITE Macro Assembler V9.83 build 10920 
                                                                                               Thu Dec 04 14:14:29 2014

HI-TECH Software Omniscient Code Generator (Lite mode) build 10920
     1  0000                     opt subtitle "HI-TECH Software Omniscient Code Generator (Lite mode) build 10920"
     2                           
     3                           opt pagewidth 120
     4                           
     5                           	opt lm
     6                           
     7                           	processor	16F690
     8                           clrc	macro
     9                           	bcf	3,0
    10  0000                     	endm
    11                           clrz	macro
    12                           	bcf	3,2
    13  0000                     	endm
    14                           setc	macro
    15                           	bsf	3,0
    16  0000                     	endm
    17                           setz	macro
    18                           	bsf	3,2
    19  0000                     	endm
    20                           skipc	macro
    21                           	btfss	3,0
    22  0000                     	endm
    23                           skipz	macro
    24                           	btfss	3,2
    25  0000                     	endm
    26                           skipnc	macro
    27                           	btfsc	3,0
    28  0000                     	endm
    29                           skipnz	macro
    30                           	btfsc	3,2
    31  0000                     	endm
    32  0000                     indf	equ	0
    33  0000                     indf0	equ	0
    34  0002                     pc	equ	2
    35  0002                     pcl	equ	2
    36  0003                     status	equ	3
    37  0004                     fsr	equ	4
    38  0004                     fsr0	equ	4
    39  0001                     c	equ	1
    40  0000                     z	equ	0
    41  000A                     pclath	equ	10
    42                           # 6 "C:\Users\Claudio\Desktop\TI\PIC\Projeto_TI.c"
    43                           	psect config,class=CONFIG,delta=2 ;#
    44                           # 6 "C:\Users\Claudio\Desktop\TI\PIC\Projeto_TI.c"
    45  2007  FFC4               	dw 0xFFFC & 0xFFF7 & 0xFFEF & 0xFFDF ;#
    46                           	FNCALL	_main,_lcd_init
    47                           	FNCALL	_main,_serial_init
    48                           	FNCALL	_main,_printf
    49                           	FNCALL	_printf,_putch
    50                           	FNCALL	_putch,_lcd_putc
    51                           	FNCALL	_lcd_init,_lcd_write
    52                           	FNCALL	_lcd_init,_lcd_clear
    53                           	FNCALL	_lcd_putc,_lcd_clear
    54                           	FNCALL	_lcd_putc,_lcd_goto
    55                           	FNCALL	_lcd_putc,_lcd_write
    56                           	FNCALL	_lcd_putc,_lcd_putc
    57                           	FNCALL	_lcd_goto,_lcd_write
    58                           	FNCALL	_lcd_clear,_lcd_write
    59                           	FNROOT	_main
    60                           	FNCALL	_serial,_sync
    61                           	FNCALL	intlevel1,_serial
    62                           	global	intlevel1
    63                           	FNROOT	intlevel1
    64                           	global	_wait
    65                           psect	idataBANK0,class=CODE,space=0,delta=2
    66                           global __pidataBANK0
    67  0691                     __pidataBANK0:
    68                           	file	"C:\Users\Claudio\Desktop\TI\PIC\Projeto_TI.c"
    69                           	line	15
    70                           
    71                           ;initializer for _wait
    72  0691  3401               	retlw	01h
    73                           	global	_flagmin
    74                           	global	_flagstat
    75                           	global	_ini
    76                           	global	_minutos
    77                           	global	_C_on
    78                           	global	_dado_rx
    79                           	global	_ready
    80                           	global	_conex
    81                           	global	_flag
    82                           	global	_seg
    83                           	global	_TMR1
    84  000E                     _TMR1	set	14
    85                           	global	_PORTC
    86  0007                     _PORTC	set	7
    87                           	global	_RCREG
    88  001A                     _RCREG	set	26
    89                           	global	_TXREG
    90  0019                     _TXREG	set	25
    91                           	global	_CARRY
    92  0018                     _CARRY	set	24
    93                           	global	_CREN
    94  00C4                     _CREN	set	196
    95                           	global	_FERR
    96  00C2                     _FERR	set	194
    97                           	global	_GIE
    98  005F                     _GIE	set	95
    99                           	global	_INTE
   100  005C                     _INTE	set	92
   101                           	global	_INTF
   102  0059                     _INTF	set	89
   103                           	global	_OERR
   104  00C1                     _OERR	set	193
   105                           	global	_PEIE
   106  005E                     _PEIE	set	94
   107                           	global	_RA0
   108  0028                     _RA0	set	40
   109                           	global	_RA1
   110  0029                     _RA1	set	41
   111                           	global	_RA2
   112  002A                     _RA2	set	42
   113                           	global	_RA4
   114  002C                     _RA4	set	44
   115                           	global	_RA5
   116  002D                     _RA5	set	45
   117                           	global	_RCIF
   118  0065                     _RCIF	set	101
   119                           	global	_RX9
   120  00C6                     _RX9	set	198
   121                           	global	_SPEN
   122  00C7                     _SPEN	set	199
   123                           	global	_T1CKPS0
   124  0084                     _T1CKPS0	set	132
   125                           	global	_T1CKPS1
   126  0085                     _T1CKPS1	set	133
   127                           	global	_TMR1CS
   128  0081                     _TMR1CS	set	129
   129                           	global	_TMR1IF
   130  0060                     _TMR1IF	set	96
   131                           	global	_TMR1ON
   132  0080                     _TMR1ON	set	128
   133                           	global	_nT1SYNC
   134  0082                     _nT1SYNC	set	130
   135                           	global	_SPBRG
   136  0099                     _SPBRG	set	153
   137                           	global	_SPBRGH
   138  009A                     _SPBRGH	set	154
   139                           	global	_TRISA
   140  0085                     _TRISA	set	133
   141                           	global	_TRISB
   142  0086                     _TRISB	set	134
   143                           	global	_TRISC
   144  0087                     _TRISC	set	135
   145                           	global	_BRG16
   146  04DB                     _BRG16	set	1243
   147                           	global	_BRGH
   148  04C2                     _BRGH	set	1218
   149                           	global	_INTEDG
   150  040E                     _INTEDG	set	1038
   151                           	global	_RCIE
   152  0465                     _RCIE	set	1125
   153                           	global	_SYNC
   154  04C4                     _SYNC	set	1220
   155                           	global	_TMR1IE
   156  0460                     _TMR1IE	set	1120
   157                           	global	_TRMT
   158  04C1                     _TRMT	set	1217
   159                           	global	_TX9
   160  04C6                     _TX9	set	1222
   161                           	global	_TXEN
   162  04C5                     _TXEN	set	1221
   163                           	global	_TXIE
   164  0464                     _TXIE	set	1124
   165                           	global	_ANSEL
   166  011E                     _ANSEL	set	286
   167                           	global	_ANSELH
   168  011F                     _ANSELH	set	287
   169                           	global	_EEADR
   170  010D                     _EEADR	set	269
   171                           	global	_EEDATA
   172  010C                     _EEDATA	set	268
   173                           	global	_EECON1
   174  018C                     _EECON1	set	396
   175                           	global	_EECON2
   176  018D                     _EECON2	set	397
   177                           	global	_RD
   178  0C60                     _RD	set	3168
   179                           	global	_WR
   180  0C61                     _WR	set	3169
   181                           	global	_WREN
   182  0C62                     _WREN	set	3170
   183                           psect	strings,class=STRING,delta=2
   184                           global __pstrings
   185  035A                     __pstrings:
   186                           ;	global	stringtab,__stringbase
   187  035A                     stringtab:
   188                           ;	String table - string pointers are 2 bytes each
   189  035A  1BFF               	btfsc	(btemp+1),7
   190  035B  2B64               	ljmp	stringcode
   191  035C  1383               	bcf	status,7
   192  035D  187F               	btfsc	(btemp+1),0
   193  035E  1783               	bsf	status,7
   194  035F  0800               	movf	indf,w
   195  0360  0A84               	incf fsr
   196  0361  1903               skipnz
   197  0362  0AFF               incf btemp+1
   198  0363  0008               	return
   199  0364                     stringcode:
   200  0364  087F               	movf btemp+1,w
   201  0365  397F               andlw 7Fh
   202  0366  008A               movwf	pclath
   203  0367  0804               	movf	fsr,w
   204  0368  0A84               incf fsr
   205  0369  1903               skipnz
   206  036A  0AFF               incf btemp+1
   207  036B  0082               	movwf pc
   208  036C                     __stringbase:
   209                           psect	stringtext,class=STRCODE,delta=2,reloc=256
   210                           global __pstringtext
   211  0400                     __pstringtext:
   212                           	
   213  0400                     STR_3:	
   214  0400  340C               	retlw	12
   215  0401  3450               	retlw	80	;'P'
   216  0402  3472               	retlw	114	;'r'
   217  0403  346F               	retlw	111	;'o'
   218  0404  3478               	retlw	120	;'x'
   219  0405  3469               	retlw	105	;'i'
   220  0406  346D               	retlw	109	;'m'
   221  0407  346F               	retlw	111	;'o'
   222  0408  3420               	retlw	32	;' '
   223  0409  3474               	retlw	116	;'t'
   224  040A  3472               	retlw	114	;'r'
   225  040B  3465               	retlw	101	;'e'
   226  040C  346D               	retlw	109	;'m'
   227  040D  343A               	retlw	58	;':'
   228  040E  340A               	retlw	10
   229  040F  3441               	retlw	65	;'A'
   230  0410  3470               	retlw	112	;'p'
   231  0411  3472               	retlw	114	;'r'
   232  0412  346F               	retlw	111	;'o'
   233  0413  3478               	retlw	120	;'x'
   234  0414  342E               	retlw	46	;'.'
   235  0415  3420               	retlw	32	;' '
   236  0416  3431               	retlw	49	;'1'
   237  0417  3430               	retlw	48	;'0'
   238  0418  3420               	retlw	32	;' '
   239  0419  346D               	retlw	109	;'m'
   240  041A  3469               	retlw	105	;'i'
   241  041B  346E               	retlw	110	;'n'
   242  041C  342E               	retlw	46	;'.'
   243  041D  3400               	retlw	0
   244                           psect	stringtext
   245                           	
   246  041E                     STR_12:	
   247  041E  340C               	retlw	12
   248  041F  3450               	retlw	80	;'P'
   249  0420  3472               	retlw	114	;'r'
   250  0421  346F               	retlw	111	;'o'
   251  0422  3478               	retlw	120	;'x'
   252  0423  3469               	retlw	105	;'i'
   253  0424  346D               	retlw	109	;'m'
   254  0425  346F               	retlw	111	;'o'
   255  0426  3420               	retlw	32	;' '
   256  0427  3474               	retlw	116	;'t'
   257  0428  3472               	retlw	114	;'r'
   258  0429  3465               	retlw	101	;'e'
   259  042A  346D               	retlw	109	;'m'
   260  042B  343A               	retlw	58	;':'
   261  042C  340A               	retlw	10
   262  042D  3441               	retlw	65	;'A'
   263  042E  3470               	retlw	112	;'p'
   264  042F  3472               	retlw	114	;'r'
   265  0430  346F               	retlw	111	;'o'
   266  0431  3478               	retlw	120	;'x'
   267  0432  342E               	retlw	46	;'.'
   268  0433  3420               	retlw	32	;' '
   269  0434  3431               	retlw	49	;'1'
   270  0435  3420               	retlw	32	;' '
   271  0436  346D               	retlw	109	;'m'
   272  0437  3469               	retlw	105	;'i'
   273  0438  346E               	retlw	110	;'n'
   274  0439  342E               	retlw	46	;'.'
   275  043A  3400               	retlw	0
   276                           psect	stringtext
   277                           	
   278  043B                     STR_11:	
   279  043B  340C               	retlw	12
   280  043C  3450               	retlw	80	;'P'
   281  043D  3472               	retlw	114	;'r'
   282  043E  346F               	retlw	111	;'o'
   283  043F  3478               	retlw	120	;'x'
   284  0440  3469               	retlw	105	;'i'
   285  0441  346D               	retlw	109	;'m'
   286  0442  346F               	retlw	111	;'o'
   287  0443  3420               	retlw	32	;' '
   288  0444  3474               	retlw	116	;'t'
   289  0445  3472               	retlw	114	;'r'
   290  0446  3465               	retlw	101	;'e'
   291  0447  346D               	retlw	109	;'m'
   292  0448  343A               	retlw	58	;':'
   293  0449  340A               	retlw	10
   294  044A  3441               	retlw	65	;'A'
   295  044B  3470               	retlw	112	;'p'
   296  044C  3472               	retlw	114	;'r'
   297  044D  346F               	retlw	111	;'o'
   298  044E  3478               	retlw	120	;'x'
   299  044F  342E               	retlw	46	;'.'
   300  0450  3420               	retlw	32	;' '
   301  0451  3432               	retlw	50	;'2'
   302  0452  3420               	retlw	32	;' '
   303  0453  346D               	retlw	109	;'m'
   304  0454  3469               	retlw	105	;'i'
   305  0455  346E               	retlw	110	;'n'
   306  0456  342E               	retlw	46	;'.'
   307  0457  3400               	retlw	0
   308                           psect	stringtext
   309                           	
   310  0458                     STR_10:	
   311  0458  340C               	retlw	12
   312  0459  3450               	retlw	80	;'P'
   313  045A  3472               	retlw	114	;'r'
   314  045B  346F               	retlw	111	;'o'
   315  045C  3478               	retlw	120	;'x'
   316  045D  3469               	retlw	105	;'i'
   317  045E  346D               	retlw	109	;'m'
   318  045F  346F               	retlw	111	;'o'
   319  0460  3420               	retlw	32	;' '
   320  0461  3474               	retlw	116	;'t'
   321  0462  3472               	retlw	114	;'r'
   322  0463  3465               	retlw	101	;'e'
   323  0464  346D               	retlw	109	;'m'
   324  0465  343A               	retlw	58	;':'
   325  0466  340A               	retlw	10
   326  0467  3441               	retlw	65	;'A'
   327  0468  3470               	retlw	112	;'p'
   328  0469  3472               	retlw	114	;'r'
   329  046A  346F               	retlw	111	;'o'
   330  046B  3478               	retlw	120	;'x'
   331  046C  342E               	retlw	46	;'.'
   332  046D  3420               	retlw	32	;' '
   333  046E  3433               	retlw	51	;'3'
   334  046F  3420               	retlw	32	;' '
   335  0470  346D               	retlw	109	;'m'
   336  0471  3469               	retlw	105	;'i'
   337  0472  346E               	retlw	110	;'n'
   338  0473  342E               	retlw	46	;'.'
   339  0474  3400               	retlw	0
   340                           psect	stringtext
   341                           	
   342  0475                     STR_9:	
   343  0475  340C               	retlw	12
   344  0476  3450               	retlw	80	;'P'
   345  0477  3472               	retlw	114	;'r'
   346  0478  346F               	retlw	111	;'o'
   347  0479  3478               	retlw	120	;'x'
   348  047A  3469               	retlw	105	;'i'
   349  047B  346D               	retlw	109	;'m'
   350  047C  346F               	retlw	111	;'o'
   351  047D  3420               	retlw	32	;' '
   352  047E  3474               	retlw	116	;'t'
   353  047F  3472               	retlw	114	;'r'
   354  0480  3465               	retlw	101	;'e'
   355  0481  346D               	retlw	109	;'m'
   356  0482  343A               	retlw	58	;':'
   357  0483  340A               	retlw	10
   358  0484  3441               	retlw	65	;'A'
   359  0485  3470               	retlw	112	;'p'
   360  0486  3472               	retlw	114	;'r'
   361  0487  346F               	retlw	111	;'o'
   362  0488  3478               	retlw	120	;'x'
   363  0489  342E               	retlw	46	;'.'
   364  048A  3420               	retlw	32	;' '
   365  048B  3434               	retlw	52	;'4'
   366  048C  3420               	retlw	32	;' '
   367  048D  346D               	retlw	109	;'m'
   368  048E  3469               	retlw	105	;'i'
   369  048F  346E               	retlw	110	;'n'
   370  0490  342E               	retlw	46	;'.'
   371  0491  3400               	retlw	0
   372                           psect	stringtext
   373                           	
   374  0492                     STR_8:	
   375  0492  340C               	retlw	12
   376  0493  3450               	retlw	80	;'P'
   377  0494  3472               	retlw	114	;'r'
   378  0495  346F               	retlw	111	;'o'
   379  0496  3478               	retlw	120	;'x'
   380  0497  3469               	retlw	105	;'i'
   381  0498  346D               	retlw	109	;'m'
   382  0499  346F               	retlw	111	;'o'
   383  049A  3420               	retlw	32	;' '
   384  049B  3474               	retlw	116	;'t'
   385  049C  3472               	retlw	114	;'r'
   386  049D  3465               	retlw	101	;'e'
   387  049E  346D               	retlw	109	;'m'
   388  049F  343A               	retlw	58	;':'
   389  04A0  340A               	retlw	10
   390  04A1  3441               	retlw	65	;'A'
   391  04A2  3470               	retlw	112	;'p'
   392  04A3  3472               	retlw	114	;'r'
   393  04A4  346F               	retlw	111	;'o'
   394  04A5  3478               	retlw	120	;'x'
   395  04A6  342E               	retlw	46	;'.'
   396  04A7  3420               	retlw	32	;' '
   397  04A8  3435               	retlw	53	;'5'
   398  04A9  3420               	retlw	32	;' '
   399  04AA  346D               	retlw	109	;'m'
   400  04AB  3469               	retlw	105	;'i'
   401  04AC  346E               	retlw	110	;'n'
   402  04AD  342E               	retlw	46	;'.'
   403  04AE  3400               	retlw	0
   404                           psect	stringtext
   405                           	
   406  04AF                     STR_7:	
   407  04AF  340C               	retlw	12
   408  04B0  3450               	retlw	80	;'P'
   409  04B1  3472               	retlw	114	;'r'
   410  04B2  346F               	retlw	111	;'o'
   411  04B3  3478               	retlw	120	;'x'
   412  04B4  3469               	retlw	105	;'i'
   413  04B5  346D               	retlw	109	;'m'
   414  04B6  346F               	retlw	111	;'o'
   415  04B7  3420               	retlw	32	;' '
   416  04B8  3474               	retlw	116	;'t'
   417  04B9  3472               	retlw	114	;'r'
   418  04BA  3465               	retlw	101	;'e'
   419  04BB  346D               	retlw	109	;'m'
   420  04BC  343A               	retlw	58	;':'
   421  04BD  340A               	retlw	10
   422  04BE  3441               	retlw	65	;'A'
   423  04BF  3470               	retlw	112	;'p'
   424  04C0  3472               	retlw	114	;'r'
   425  04C1  346F               	retlw	111	;'o'
   426  04C2  3478               	retlw	120	;'x'
   427  04C3  342E               	retlw	46	;'.'
   428  04C4  3420               	retlw	32	;' '
   429  04C5  3436               	retlw	54	;'6'
   430  04C6  3420               	retlw	32	;' '
   431  04C7  346D               	retlw	109	;'m'
   432  04C8  3469               	retlw	105	;'i'
   433  04C9  346E               	retlw	110	;'n'
   434  04CA  342E               	retlw	46	;'.'
   435  04CB  3400               	retlw	0
   436                           psect	stringtext
   437                           	
   438  04CC                     STR_6:	
   439  04CC  340C               	retlw	12
   440  04CD  3450               	retlw	80	;'P'
   441  04CE  3472               	retlw	114	;'r'
   442  04CF  346F               	retlw	111	;'o'
   443  04D0  3478               	retlw	120	;'x'
   444  04D1  3469               	retlw	105	;'i'
   445  04D2  346D               	retlw	109	;'m'
   446  04D3  346F               	retlw	111	;'o'
   447  04D4  3420               	retlw	32	;' '
   448  04D5  3474               	retlw	116	;'t'
   449  04D6  3472               	retlw	114	;'r'
   450  04D7  3465               	retlw	101	;'e'
   451  04D8  346D               	retlw	109	;'m'
   452  04D9  343A               	retlw	58	;':'
   453  04DA  340A               	retlw	10
   454  04DB  3441               	retlw	65	;'A'
   455  04DC  3470               	retlw	112	;'p'
   456  04DD  3472               	retlw	114	;'r'
   457  04DE  346F               	retlw	111	;'o'
   458  04DF  3478               	retlw	120	;'x'
   459  04E0  342E               	retlw	46	;'.'
   460  04E1  3420               	retlw	32	;' '
   461  04E2  3437               	retlw	55	;'7'
   462  04E3  3420               	retlw	32	;' '
   463  04E4  346D               	retlw	109	;'m'
   464  04E5  3469               	retlw	105	;'i'
   465  04E6  346E               	retlw	110	;'n'
   466  04E7  342E               	retlw	46	;'.'
   467  04E8  3400               	retlw	0
   468                           psect	stringtext
   469                           	
   470  04E9                     STR_5:	
   471  04E9  340C               	retlw	12
   472  04EA  3450               	retlw	80	;'P'
   473  04EB  3472               	retlw	114	;'r'
   474  04EC  346F               	retlw	111	;'o'
   475  04ED  3478               	retlw	120	;'x'
   476  04EE  3469               	retlw	105	;'i'
   477  04EF  346D               	retlw	109	;'m'
   478  04F0  346F               	retlw	111	;'o'
   479  04F1  3420               	retlw	32	;' '
   480  04F2  3474               	retlw	116	;'t'
   481  04F3  3472               	retlw	114	;'r'
   482  04F4  3465               	retlw	101	;'e'
   483  04F5  346D               	retlw	109	;'m'
   484  04F6  343A               	retlw	58	;':'
   485  04F7  340A               	retlw	10
   486  04F8  3441               	retlw	65	;'A'
   487  04F9  3470               	retlw	112	;'p'
   488  04FA  3472               	retlw	114	;'r'
   489  04FB  346F               	retlw	111	;'o'
   490  04FC  3478               	retlw	120	;'x'
   491  04FD  342E               	retlw	46	;'.'
   492  04FE  3420               	retlw	32	;' '
   493  04FF  3438               	retlw	56	;'8'
   494  0500  3420               	retlw	32	;' '
   495  0501  346D               	retlw	109	;'m'
   496  0502  3469               	retlw	105	;'i'
   497  0503  346E               	retlw	110	;'n'
   498  0504  342E               	retlw	46	;'.'
   499  0505  3400               	retlw	0
   500                           psect	stringtext
   501                           	
   502  0506                     STR_4:	
   503  0506  340C               	retlw	12
   504  0507  3450               	retlw	80	;'P'
   505  0508  3472               	retlw	114	;'r'
   506  0509  346F               	retlw	111	;'o'
   507  050A  3478               	retlw	120	;'x'
   508  050B  3469               	retlw	105	;'i'
   509  050C  346D               	retlw	109	;'m'
   510  050D  346F               	retlw	111	;'o'
   511  050E  3420               	retlw	32	;' '
   512  050F  3474               	retlw	116	;'t'
   513  0510  3472               	retlw	114	;'r'
   514  0511  3465               	retlw	101	;'e'
   515  0512  346D               	retlw	109	;'m'
   516  0513  343A               	retlw	58	;':'
   517  0514  340A               	retlw	10
   518  0515  3441               	retlw	65	;'A'
   519  0516  3470               	retlw	112	;'p'
   520  0517  3472               	retlw	114	;'r'
   521  0518  346F               	retlw	111	;'o'
   522  0519  3478               	retlw	120	;'x'
   523  051A  342E               	retlw	46	;'.'
   524  051B  3420               	retlw	32	;' '
   525  051C  3439               	retlw	57	;'9'
   526  051D  3420               	retlw	32	;' '
   527  051E  346D               	retlw	109	;'m'
   528  051F  3469               	retlw	105	;'i'
   529  0520  346E               	retlw	110	;'n'
   530  0521  342E               	retlw	46	;'.'
   531  0522  3400               	retlw	0
   532                           psect	stringtext
   533                           	
   534  0523                     STR_2:	
   535  0523  340C               	retlw	12
   536  0524  3450               	retlw	80	;'P'
   537  0525  3472               	retlw	114	;'r'
   538  0526  346F               	retlw	111	;'o'
   539  0527  3478               	retlw	120	;'x'
   540  0528  3469               	retlw	105	;'i'
   541  0529  346D               	retlw	109	;'m'
   542  052A  346F               	retlw	111	;'o'
   543  052B  3420               	retlw	32	;' '
   544  052C  3474               	retlw	116	;'t'
   545  052D  3472               	retlw	114	;'r'
   546  052E  3465               	retlw	101	;'e'
   547  052F  346D               	retlw	109	;'m'
   548  0530  343A               	retlw	58	;':'
   549  0531  340A               	retlw	10
   550  0532  344E               	retlw	78	;'N'
   551  0533  3441               	retlw	65	;'A'
   552  0534  3420               	retlw	32	;' '
   553  0535  3445               	retlw	69	;'E'
   554  0536  3453               	retlw	83	;'S'
   555  0537  3454               	retlw	84	;'T'
   556  0538  3441               	retlw	65	;'A'
   557  0539  3443               	retlw	67	;'C'
   558  053A  3441               	retlw	65	;'A'
   559  053B  344F               	retlw	79	;'O'
   560  053C  3400               	retlw	0
   561                           psect	stringtext
   562                           	
   563  053D                     STR_1:	
   564  053D  340C               	retlw	12
   565  053E  3400               	retlw	0
   566                           psect	stringtext
   567                           	file	"TI.as"
   568                           	line	#
   569                           psect cinit,class=CODE,delta=2
   570                           global start_initialization
   571  0670                     start_initialization:
   572                           
   573                           psect	bitbssCOMMON,class=COMMON,bit,space=1
   574                           global __pbitbssCOMMON
   575  03C0                     __pbitbssCOMMON:
   576  03C0                     _conex:
   577  03C0                            ds      1
   578                           
   579  03C1                     _flag:
   580  03C1                            ds      1
   581                           
   582  03C2                     _seg:
   583  03C2                            ds      1
   584                           
   585                           psect	bssCOMMON,class=COMMON,space=1
   586                           global __pbssCOMMON
   587  0079                     __pbssCOMMON:
   588  0079                     _C_on:
   589  0079                            ds      1
   590                           
   591  007A                     _dado_rx:
   592  007A                            ds      1
   593                           
   594  007B                     _ready:
   595  007B                            ds      1
   596                           
   597                           psect	bssBANK0,class=BANK0,space=1
   598                           global __pbssBANK0
   599  0031                     __pbssBANK0:
   600  0031                     _flagmin:
   601  0031                            ds      1
   602                           
   603  0032                     _flagstat:
   604  0032                            ds      1
   605                           
   606  0033                     _ini:
   607  0033                            ds      1
   608                           
   609  0034                     _minutos:
   610  0034                            ds      1
   611                           
   612                           psect	dataBANK0,class=BANK0,space=1
   613                           global __pdataBANK0
   614  0035                     __pdataBANK0:
   615                           	file	"C:\Users\Claudio\Desktop\TI\PIC\Projeto_TI.c"
   616  0035                     _wait:
   617  0035                            ds      1
   618                           
   619                           ; Clear objects allocated to BITCOMMON
   620                           psect cinit,class=CODE,delta=2
   621  0670  01F8               	clrf	((__pbitbssCOMMON/8)+0)&07Fh
   622                           ; Clear objects allocated to COMMON
   623                           psect cinit,class=CODE,delta=2
   624  0671  01F9               	clrf	((__pbssCOMMON)+0)&07Fh
   625  0672  01FA               	clrf	((__pbssCOMMON)+1)&07Fh
   626  0673  01FB               	clrf	((__pbssCOMMON)+2)&07Fh
   627                           ; Clear objects allocated to BANK0
   628                           psect cinit,class=CODE,delta=2
   629  0674  01B1               	clrf	((__pbssBANK0)+0)&07Fh
   630  0675  01B2               	clrf	((__pbssBANK0)+1)&07Fh
   631  0676  01B3               	clrf	((__pbssBANK0)+2)&07Fh
   632  0677  01B4               	clrf	((__pbssBANK0)+3)&07Fh
   633                           ; Initialize objects allocated to BANK0
   634                           	global __pidataBANK0
   635                           psect cinit,class=CODE,delta=2
   636  0678  118A  2691  118A   	fcall	__pidataBANK0+0		;fetch initializer
   637  067B  00B5               	movwf	__pdataBANK0+0&07fh		
   638                           psect cinit,class=CODE,delta=2
   639                           global end_of_initialization
   640                           
   641                           ;End of C runtime variable initialization code
   642                           
   643  067C                     end_of_initialization:
   644  067C  0183               clrf status
   645  067D  118A  2813         ljmp _main	;jump to C main() function
   646                           psect	cstackCOMMON,class=COMMON,space=1
   647                           global __pcstackCOMMON
   648  0070                     __pcstackCOMMON:
   649                           	global	?_lcd_goto
   650  0070                     ?_lcd_goto:	; 0 bytes @ 0x0
   651                           	global	?_lcd_write
   652  0070                     ?_lcd_write:	; 0 bytes @ 0x0
   653                           	global	?_lcd_clear
   654  0070                     ?_lcd_clear:	; 0 bytes @ 0x0
   655                           	global	?_lcd_putc
   656  0070                     ?_lcd_putc:	; 0 bytes @ 0x0
   657                           	global	?_lcd_init
   658  0070                     ?_lcd_init:	; 0 bytes @ 0x0
   659                           	global	?_putch
   660  0070                     ?_putch:	; 0 bytes @ 0x0
   661                           	global	?_sync
   662  0070                     ?_sync:	; 0 bytes @ 0x0
   663                           	global	?_serial
   664  0070                     ?_serial:	; 0 bytes @ 0x0
   665                           	global	?_serial_init
   666  0070                     ?_serial_init:	; 0 bytes @ 0x0
   667                           	global	?_main
   668  0070                     ?_main:	; 0 bytes @ 0x0
   669                           	global	sync@data
   670  0070                     sync@data:	; 1 bytes @ 0x0
   671  0070                     	ds	1
   672                           	global	??_sync
   673  0071                     ??_sync:	; 0 bytes @ 0x1
   674                           	global	sync@mode
   675  0071                     sync@mode:	; 1 bytes @ 0x1
   676  0071                     	ds	1
   677                           	global	??_serial
   678  0072                     ??_serial:	; 0 bytes @ 0x2
   679  0072                     	ds	5
   680                           	global	serial@lixo
   681  0077                     serial@lixo:	; 1 bytes @ 0x7
   682  0077                     	ds	1
   683                           psect	cstackBANK0,class=BANK0,space=1
   684                           global __pcstackBANK0
   685  0020                     __pcstackBANK0:
   686                           	global	??_lcd_write
   687  0020                     ??_lcd_write:	; 0 bytes @ 0x0
   688                           	global	??_serial_init
   689  0020                     ??_serial_init:	; 0 bytes @ 0x0
   690  0020                     	ds	2
   691                           	global	lcd_write@c
   692  0022                     lcd_write@c:	; 1 bytes @ 0x2
   693  0022                     	ds	1
   694                           	global	??_lcd_goto
   695  0023                     ??_lcd_goto:	; 0 bytes @ 0x3
   696                           	global	??_lcd_clear
   697  0023                     ??_lcd_clear:	; 0 bytes @ 0x3
   698                           	global	lcd_goto@pos
   699  0023                     lcd_goto@pos:	; 1 bytes @ 0x3
   700  0023                     	ds	2
   701                           	global	??_lcd_putc
   702  0025                     ??_lcd_putc:	; 0 bytes @ 0x5
   703                           	global	??_lcd_init
   704  0025                     ??_lcd_init:	; 0 bytes @ 0x5
   705                           	global	lcd_putc@c
   706  0025                     lcd_putc@c:	; 1 bytes @ 0x5
   707  0025                     	ds	1
   708                           	global	??_putch
   709  0026                     ??_putch:	; 0 bytes @ 0x6
   710                           	global	putch@c
   711  0026                     putch@c:	; 1 bytes @ 0x6
   712  0026                     	ds	1
   713                           	global	?_printf
   714  0027                     ?_printf:	; 2 bytes @ 0x7
   715                           	global	lcd_init@init_value
   716  0027                     lcd_init@init_value:	; 1 bytes @ 0x7
   717                           	global	printf@f
   718  0027                     printf@f:	; 2 bytes @ 0x7
   719  0027                     	ds	2
   720                           	global	??_printf
   721  0029                     ??_printf:	; 0 bytes @ 0x9
   722  0029                     	ds	3
   723                           	global	printf@ap
   724  002C                     printf@ap:	; 1 bytes @ 0xC
   725  002C                     	ds	1
   726                           	global	printf@c
   727  002D                     printf@c:	; 1 bytes @ 0xD
   728  002D                     	ds	1
   729                           	global	??_main
   730  002E                     ??_main:	; 0 bytes @ 0xE
   731  002E                     	ds	3
   732 ;;Data sizes: Strings 319, constant 0, data 1, bss 7, persistent 0 stack 0
   733 ;;Auto spaces:   Size  Autos    Used
   734 ;; COMMON          14      8      12
   735 ;; BANK0           80     17      22
   736 ;; BANK1           80      0       0
   737 ;; BANK2           80      0       0
   738                           
   739 ;;
   740 ;; Pointer list with targets:
   741                           
   742 ;; printf@f	PTR const unsigned char  size(2) Largest target is 30
   743 ;;		 -> STR_12(CODE[29]), STR_11(CODE[29]), STR_10(CODE[29]), STR_9(CODE[29]), 
   744 ;;		 -> STR_8(CODE[29]), STR_7(CODE[29]), STR_6(CODE[29]), STR_5(CODE[29]), 
   745 ;;		 -> STR_4(CODE[29]), STR_3(CODE[30]), STR_2(CODE[26]), STR_1(CODE[2]), 
   746 ;;
   747 ;; printf@ap	PTR void [1] size(1) Largest target is 2
   748 ;;		 -> ?_printf(BANK0[2]), 
   749 ;;
   750 ;; S2699$_cp	PTR const unsigned char  size(1) Largest target is 0
   751 ;;
   752 ;; _val._str._cp	PTR const unsigned char  size(1) Largest target is 0
   753 ;;
   754                           
   755                           
   756 ;;
   757 ;; Critical Paths under _main in COMMON
   758 ;;
   759 ;;   None.
   760 ;;
   761 ;; Critical Paths under _serial in COMMON
   762 ;;
   763 ;;   _serial->_sync
   764 ;;
   765 ;; Critical Paths under _main in BANK0
   766 ;;
   767 ;;   _main->_printf
   768 ;;   _printf->_putch
   769 ;;   _putch->_lcd_putc
   770 ;;   _lcd_init->_lcd_clear
   771 ;;   _lcd_putc->_lcd_clear
   772 ;;   _lcd_goto->_lcd_write
   773 ;;   _lcd_clear->_lcd_write
   774 ;;
   775 ;; Critical Paths under _serial in BANK0
   776 ;;
   777 ;;   None.
   778 ;;
   779 ;; Critical Paths under _main in BANK1
   780 ;;
   781 ;;   None.
   782 ;;
   783 ;; Critical Paths under _serial in BANK1
   784 ;;
   785 ;;   None.
   786 ;;
   787 ;; Critical Paths under _main in BANK2
   788 ;;
   789 ;;   None.
   790 ;;
   791 ;; Critical Paths under _serial in BANK2
   792 ;;
   793 ;;   None.
   794                           
   795 ;;
   796 ;;Main: autosize = 0, tempsize = 3, incstack = 0, save=0
   797 ;;
   798                           
   799 ;;
   800 ;;Call Graph Tables:
   801 ;;
   802 ;; ---------------------------------------------------------------------------------
   803 ;; (Depth) Function   	        Calls       Base Space   Used Autos Params    Refs
   804 ;; ---------------------------------------------------------------------------------
   805 ;; (0) _main                                                 3     3      0     575
   806 ;;                                             14 BANK0      3     3      0
   807 ;;                           _lcd_init
   808 ;;                        _serial_init
   809 ;;                             _printf
   810 ;; ---------------------------------------------------------------------------------
   811 ;; (1) _printf                                              13    11      2     464
   812 ;;                                              7 BANK0      7     5      2
   813 ;;                              _putch
   814 ;; ---------------------------------------------------------------------------------
   815 ;; (2) _putch                                                1     1      0     418
   816 ;;                                              6 BANK0      1     1      0
   817 ;;                           _lcd_putc
   818 ;; ---------------------------------------------------------------------------------
   819 ;; (1) _lcd_init                                             3     3      0     111
   820 ;;                                              5 BANK0      3     3      0
   821 ;;                          _lcd_write
   822 ;;                          _lcd_clear
   823 ;; ---------------------------------------------------------------------------------
   824 ;; (3) _lcd_putc                                             1     1      0     396
   825 ;;                                              5 BANK0      1     1      0
   826 ;;                          _lcd_clear
   827 ;;                           _lcd_goto
   828 ;;                          _lcd_write
   829 ;;                           _lcd_putc
   830 ;; ---------------------------------------------------------------------------------
   831 ;; (4) _lcd_goto                                             1     1      0      66
   832 ;;                                              3 BANK0      1     1      0
   833 ;;                          _lcd_write
   834 ;; ---------------------------------------------------------------------------------
   835 ;; (4) _lcd_clear                                            2     2      0      44
   836 ;;                                              3 BANK0      2     2      0
   837 ;;                          _lcd_write
   838 ;; ---------------------------------------------------------------------------------
   839 ;; (4) _lcd_write                                            3     3      0      44
   840 ;;                                              0 BANK0      3     3      0
   841 ;; ---------------------------------------------------------------------------------
   842 ;; (1) _serial_init                                          0     0      0       0
   843 ;; ---------------------------------------------------------------------------------
   844 ;; Estimated maximum stack depth 4
   845 ;; ---------------------------------------------------------------------------------
   846 ;; (Depth) Function   	        Calls       Base Space   Used Autos Params    Refs
   847 ;; ---------------------------------------------------------------------------------
   848 ;; (6) _serial                                               6     6      0      45
   849 ;;                                              2 COMMON     6     6      0
   850 ;;                               _sync
   851 ;; ---------------------------------------------------------------------------------
   852 ;; (7) _sync                                                 2     1      1      44
   853 ;;                                              0 COMMON     2     1      1
   854 ;; ---------------------------------------------------------------------------------
   855 ;; Estimated maximum stack depth 7
   856 ;; ---------------------------------------------------------------------------------
   857                           
   858 ;; Call Graph Graphs:
   859                           
   860 ;; _main (ROOT)
   861 ;;   _lcd_init
   862 ;;     _lcd_write
   863 ;;     _lcd_clear
   864 ;;       _lcd_write
   865 ;;   _serial_init
   866 ;;   _printf
   867 ;;     _putch
   868 ;;       _lcd_putc
   869 ;;         _lcd_clear
   870 ;;           _lcd_write
   871 ;;         _lcd_goto
   872 ;;           _lcd_write
   873 ;;         _lcd_write
   874 ;;
   875 ;; _serial (ROOT)
   876 ;;   _sync
   877 ;;
   878                           
   879 ;; Address spaces:
   880                           
   881 ;;Name               Size   Autos  Total    Cost      Usage
   882 ;;SFR3                 0      0       0       4        0.0%
   883 ;;BITSFR3              0      0       0       4        0.0%
   884 ;;BANK2               50      0       0       7        0.0%
   885 ;;BITBANK2            50      0       0       6        0.0%
   886 ;;SFR2                 0      0       0       5        0.0%
   887 ;;BITSFR2              0      0       0       5        0.0%
   888 ;;SFR1                 0      0       0       2        0.0%
   889 ;;BITSFR1              0      0       0       2        0.0%
   890 ;;BANK1               50      0       0       5        0.0%
   891 ;;BITBANK1            50      0       0       4        0.0%
   892 ;;CODE                 0      0       0       0        0.0%
   893 ;;DATA                 0      0      2C      10        0.0%
   894 ;;ABS                  0      0      22       8        0.0%
   895 ;;NULL                 0      0       0       0        0.0%
   896 ;;STACK                0      0       A       2        0.0%
   897 ;;BANK0               50     11      16       3       27.5%
   898 ;;BITBANK0            50      0       0       9        0.0%
   899 ;;SFR0                 0      0       0       1        0.0%
   900 ;;BITSFR0              0      0       0       1        0.0%
   901 ;;COMMON               E      8       C       1       85.7%
   902 ;;BITCOMMON            E      0       1       0        7.1%
   903 ;;EEDATA             100      0       0       0        0.0%
   904                           
   905                           	global	_main
   906                           psect	maintext,global,class=CODE,delta=2
   907                           global __pmaintext
   908  0013                     __pmaintext:
   909                           
   910 ;; *************** function _main *****************
   911 ;; Defined at:
   912 ;;		line 167 in file "C:\Users\Claudio\Desktop\TI\PIC\Projeto_TI.c"
   913 ;; Parameters:    Size  Location     Type
   914 ;;		None
   915 ;; Auto vars:     Size  Location     Type
   916 ;;		None
   917 ;; Return value:  Size  Location     Type
   918 ;;		None               void
   919 ;; Registers used:
   920 ;;		wreg, fsr0l, fsr0h, status,2, status,0, btemp+1, pclath, cstack
   921 ;; Tracked objects:
   922 ;;		On entry : 17F/0
   923 ;;		On exit  : 0/0
   924 ;;		Unchanged: 0/0
   925 ;; Data sizes:     COMMON   BANK0   BANK1   BANK2
   926 ;;      Params:         0       0       0       0
   927 ;;      Locals:         0       0       0       0
   928 ;;      Temps:          0       3       0       0
   929 ;;      Totals:         0       3       0       0
   930 ;;Total ram usage:        3 bytes
   931 ;; Hardware stack levels required when called:    7
   932 ;; This function calls:
   933 ;;		_lcd_init
   934 ;;		_serial_init
   935 ;;		_printf
   936 ;; This function is called by:
   937 ;;		Startup code after reset
   938 ;; This function uses a non-reentrant model
   939 ;;
   940                           psect	maintext
   941                           	file	"C:\Users\Claudio\Desktop\TI\PIC\Projeto_TI.c"
   942                           	line	167
   943                           	global	__size_of_main
   944  01ED                     	__size_of_main	equ	__end_of_main-_main
   945                           	
   946  0013                     _main:	
   947                           	opt	stack 1
   948                           ; Regs used in _main: [wreg-fsr0h+status,2+status,0+btemp+1+pclath+cstack]
   949                           	line	168
   950                           	
   951  0013                     l4721:	
   952                           ;Projeto_TI.c: 168: ANSEL=0;
   953  0013  1283               	bcf	status, 5	;RP0=0, select bank2
   954  0014  1703               	bsf	status, 6	;RP1=1, select bank2
   955  0015  019E               	clrf	(286)^0100h	;volatile
   956                           	line	169
   957                           ;Projeto_TI.c: 169: ANSELH=0;
   958  0016  019F               	clrf	(287)^0100h	;volatile
   959                           	line	170
   960                           	
   961  0017                     l4723:	
   962                           ;Projeto_TI.c: 170: TRISA=0b00001100;
   963  0017  300C               	movlw	(0Ch)
   964  0018  1683               	bsf	status, 5	;RP0=1, select bank1
   965  0019  1303               	bcf	status, 6	;RP1=0, select bank1
   966  001A  0085               	movwf	(133)^080h	;volatile
   967                           	line	171
   968                           	
   969  001B                     l4725:	
   970                           ;Projeto_TI.c: 171: TRISB=0b00000000;
   971  001B  0186               	clrf	(134)^080h	;volatile
   972                           	line	172
   973                           	
   974  001C                     l4727:	
   975                           ;Projeto_TI.c: 172: TRISC=0b00000000;
   976  001C  0187               	clrf	(135)^080h	;volatile
   977                           	line	175
   978                           	
   979  001D                     l4729:	
   980                           ;Projeto_TI.c: 175: GIE=1;
   981  001D  178B               	bsf	(95/8),(95)&7
   982                           	line	176
   983                           	
   984  001E                     l4731:	
   985                           ;Projeto_TI.c: 176: INTE=1;
   986  001E  160B               	bsf	(92/8),(92)&7
   987                           	line	177
   988                           	
   989  001F                     l4733:	
   990                           ;Projeto_TI.c: 177: INTEDG=1;
   991  001F  1701               	bsf	(1038/8)^080h,(1038)&7
   992                           	line	178
   993                           	
   994  0020                     l4735:	
   995                           ;Projeto_TI.c: 178: PEIE=1;
   996  0020  170B               	bsf	(94/8),(94)&7
   997                           	line	181
   998                           	
   999  0021                     l4737:	
  1000                           ;Projeto_TI.c: 181: TMR1IE=1;
  1001  0021  140C               	bsf	(1120/8)^080h,(1120)&7
  1002                           	line	182
  1003                           	
  1004  0022                     l4739:	
  1005                           ;Projeto_TI.c: 182: TMR1IF=0;
  1006  0022  1283               	bcf	status, 5	;RP0=0, select bank0
  1007  0023  1303               	bcf	status, 6	;RP1=0, select bank0
  1008  0024  100C               	bcf	(96/8),(96)&7
  1009                           	line	183
  1010                           	
  1011  0025                     l4741:	
  1012                           ;Projeto_TI.c: 183: TMR1=3036;
  1013  0025  30DC               	movlw	low(0BDCh)
  1014  0026  008E               	movwf	(14)	;volatile
  1015  0027  300B               	movlw	high(0BDCh)
  1016  0028  008F               	movwf	((14))+1	;volatile
  1017                           	line	184
  1018                           	
  1019  0029                     l4743:	
  1020                           ;Projeto_TI.c: 184: TMR1ON=1;
  1021  0029  1410               	bsf	(128/8),(128)&7
  1022                           	line	185
  1023                           	
  1024  002A                     l4745:	
  1025                           ;Projeto_TI.c: 185: TMR1CS=0;
  1026  002A  1090               	bcf	(129/8),(129)&7
  1027                           	line	186
  1028                           	
  1029  002B                     l4747:	
  1030                           ;Projeto_TI.c: 186: T1CKPS1=1;
  1031  002B  1690               	bsf	(133/8),(133)&7
  1032                           	line	187
  1033                           	
  1034  002C                     l4749:	
  1035                           ;Projeto_TI.c: 187: T1CKPS0=1;
  1036  002C  1610               	bsf	(132/8),(132)&7
  1037                           	line	188
  1038                           	
  1039  002D                     l4751:	
  1040                           ;Projeto_TI.c: 188: nT1SYNC=1;
  1041  002D  1510               	bsf	(130/8),(130)&7
  1042                           	line	191
  1043                           	
  1044  002E                     l4753:	
  1045                           ;Projeto_TI.c: 191: lcd_init();
  1046  002E  118A  258B  118A   	fcall	_lcd_init
  1047                           	line	192
  1048                           	
  1049  0031                     l4755:	
  1050                           ;Projeto_TI.c: 192: serial_init();
  1051  0031  118A  2646  118A   	fcall	_serial_init
  1052                           	line	193
  1053                           	
  1054  0034                     l4757:	
  1055                           ;Projeto_TI.c: 193: RA5=0;
  1056  0034  1283               	bcf	status, 5	;RP0=0, select bank0
  1057  0035  1303               	bcf	status, 6	;RP1=0, select bank0
  1058  0036  1285               	bcf	(45/8),(45)&7
  1059                           	line	194
  1060                           	
  1061  0037                     l4759:	
  1062                           ;Projeto_TI.c: 194: RA4=1;
  1063  0037  1605               	bsf	(44/8),(44)&7
  1064                           	line	195
  1065                           	
  1066  0038                     l4761:	
  1067                           ;Projeto_TI.c: 195: flagmin=1;
  1068  0038  01B1               	clrf	(_flagmin)
  1069  0039  1403               	bsf	status,0
  1070  003A  0DB1               	rlf	(_flagmin),f
  1071  003B  283C               	goto	l4763
  1072                           	line	197
  1073                           ;Projeto_TI.c: 197: while(1)
  1074                           	
  1075  003C                     l1885:	
  1076                           	line	205
  1077                           	
  1078  003C                     l4763:	
  1079                           ;Projeto_TI.c: 198: {
  1080                           ;Projeto_TI.c: 205: if(ready==0 && flagmin==1)
  1081  003C  08FB               	movf	(_ready),f
  1082  003D  1D03               	skipz
  1083  003E  2840               	goto	u3071
  1084  003F  2841               	goto	u3070
  1085  0040                     u3071:
  1086  0040  2852               	goto	l4771
  1087  0041                     u3070:
  1088                           	
  1089  0041                     l4765:	
  1090  0041  0831               	movf	(_flagmin),w
  1091  0042  3A01               	xorlw	01h
  1092  0043  1D03               	skipz
  1093  0044  2846               	goto	u3081
  1094  0045  2847               	goto	u3080
  1095  0046                     u3081:
  1096  0046  2852               	goto	l4771
  1097  0047                     u3080:
  1098                           	line	207
  1099                           	
  1100  0047                     l4767:	
  1101                           ;Projeto_TI.c: 206: {
  1102                           ;Projeto_TI.c: 207: printf("\f");
  1103  0047  303D               	movlw	low(STR_1|8000h)
  1104  0048  00A7               	movwf	(?_printf)
  1105  0049  3085               	movlw	high(STR_1|8000h)
  1106  004A  00A8               	movwf	((?_printf))+1
  1107  004B  118A  25F9  118A   	fcall	_printf
  1108                           	line	208
  1109                           	
  1110  004E                     l4769:	
  1111                           ;Projeto_TI.c: 208: flagmin=0;
  1112  004E  1283               	bcf	status, 5	;RP0=0, select bank0
  1113  004F  1303               	bcf	status, 6	;RP1=0, select bank0
  1114  0050  01B1               	clrf	(_flagmin)
  1115  0051  2852               	goto	l4771
  1116                           	line	209
  1117                           	
  1118  0052                     l1886:	
  1119                           	line	211
  1120                           	
  1121  0052                     l4771:	
  1122                           ;Projeto_TI.c: 209: }
  1123                           ;Projeto_TI.c: 211: if(minutos==0 && flagmin==1 && ready==1)
  1124  0052  08B4               	movf	(_minutos),f
  1125  0053  1D03               	skipz
  1126  0054  2856               	goto	u3091
  1127  0055  2857               	goto	u3090
  1128  0056                     u3091:
  1129  0056  286E               	goto	l4781
  1130  0057                     u3090:
  1131                           	
  1132  0057                     l4773:	
  1133  0057  0831               	movf	(_flagmin),w
  1134  0058  3A01               	xorlw	01h
  1135  0059  1D03               	skipz
  1136  005A  285C               	goto	u3101
  1137  005B  285D               	goto	u3100
  1138  005C                     u3101:
  1139  005C  286E               	goto	l4781
  1140  005D                     u3100:
  1141                           	
  1142  005D                     l4775:	
  1143  005D  087B               	movf	(_ready),w
  1144  005E  3A01               	xorlw	01h
  1145  005F  1D03               	skipz
  1146  0060  2862               	goto	u3111
  1147  0061  2863               	goto	u3110
  1148  0062                     u3111:
  1149  0062  286E               	goto	l4781
  1150  0063                     u3110:
  1151                           	line	213
  1152                           	
  1153  0063                     l4777:	
  1154                           ;Projeto_TI.c: 212: {
  1155                           ;Projeto_TI.c: 213: printf("\fProximo trem:\nNA ESTACAO");
  1156  0063  3023               	movlw	low(STR_2|8000h)
  1157  0064  00A7               	movwf	(?_printf)
  1158  0065  3085               	movlw	high(STR_2|8000h)
  1159  0066  00A8               	movwf	((?_printf))+1
  1160  0067  118A  25F9  118A   	fcall	_printf
  1161                           	line	214
  1162                           	
  1163  006A                     l4779:	
  1164                           ;Projeto_TI.c: 214: flagmin=0;
  1165  006A  1283               	bcf	status, 5	;RP0=0, select bank0
  1166  006B  1303               	bcf	status, 6	;RP1=0, select bank0
  1167  006C  01B1               	clrf	(_flagmin)
  1168  006D  286E               	goto	l4781
  1169                           	line	215
  1170                           	
  1171  006E                     l1887:	
  1172                           	line	216
  1173                           	
  1174  006E                     l4781:	
  1175                           ;Projeto_TI.c: 215: }
  1176                           ;Projeto_TI.c: 216: if(minutos==1 && flagmin==1 && ready==1)
  1177  006E  0834               	movf	(_minutos),w
  1178  006F  3A01               	xorlw	01h
  1179  0070  1D03               	skipz
  1180  0071  2873               	goto	u3121
  1181  0072  2874               	goto	u3120
  1182  0073                     u3121:
  1183  0073  288B               	goto	l4791
  1184  0074                     u3120:
  1185                           	
  1186  0074                     l4783:	
  1187  0074  0831               	movf	(_flagmin),w
  1188  0075  3A01               	xorlw	01h
  1189  0076  1D03               	skipz
  1190  0077  2879               	goto	u3131
  1191  0078  287A               	goto	u3130
  1192  0079                     u3131:
  1193  0079  288B               	goto	l4791
  1194  007A                     u3130:
  1195                           	
  1196  007A                     l4785:	
  1197  007A  087B               	movf	(_ready),w
  1198  007B  3A01               	xorlw	01h
  1199  007C  1D03               	skipz
  1200  007D  287F               	goto	u3141
  1201  007E  2880               	goto	u3140
  1202  007F                     u3141:
  1203  007F  288B               	goto	l4791
  1204  0080                     u3140:
  1205                           	line	218
  1206                           	
  1207  0080                     l4787:	
  1208                           ;Projeto_TI.c: 217: {
  1209                           ;Projeto_TI.c: 218: printf("\fProximo trem:\nAprox. 10 min.");
  1210  0080  3000               	movlw	low(STR_3|8000h)
  1211  0081  00A7               	movwf	(?_printf)
  1212  0082  3084               	movlw	high(STR_3|8000h)
  1213  0083  00A8               	movwf	((?_printf))+1
  1214  0084  118A  25F9  118A   	fcall	_printf
  1215                           	line	219
  1216                           	
  1217  0087                     l4789:	
  1218                           ;Projeto_TI.c: 219: flagmin=0;
  1219  0087  1283               	bcf	status, 5	;RP0=0, select bank0
  1220  0088  1303               	bcf	status, 6	;RP1=0, select bank0
  1221  0089  01B1               	clrf	(_flagmin)
  1222  008A  288B               	goto	l4791
  1223                           	line	220
  1224                           	
  1225  008B                     l1888:	
  1226                           	line	221
  1227                           	
  1228  008B                     l4791:	
  1229                           ;Projeto_TI.c: 220: }
  1230                           ;Projeto_TI.c: 221: if(minutos==2 && flagmin==1 && ready==1)
  1231  008B  0834               	movf	(_minutos),w
  1232  008C  3A02               	xorlw	02h
  1233  008D  1D03               	skipz
  1234  008E  2890               	goto	u3151
  1235  008F  2891               	goto	u3150
  1236  0090                     u3151:
  1237  0090  28A8               	goto	l4801
  1238  0091                     u3150:
  1239                           	
  1240  0091                     l4793:	
  1241  0091  0831               	movf	(_flagmin),w
  1242  0092  3A01               	xorlw	01h
  1243  0093  1D03               	skipz
  1244  0094  2896               	goto	u3161
  1245  0095  2897               	goto	u3160
  1246  0096                     u3161:
  1247  0096  28A8               	goto	l4801
  1248  0097                     u3160:
  1249                           	
  1250  0097                     l4795:	
  1251  0097  087B               	movf	(_ready),w
  1252  0098  3A01               	xorlw	01h
  1253  0099  1D03               	skipz
  1254  009A  289C               	goto	u3171
  1255  009B  289D               	goto	u3170
  1256  009C                     u3171:
  1257  009C  28A8               	goto	l4801
  1258  009D                     u3170:
  1259                           	line	223
  1260                           	
  1261  009D                     l4797:	
  1262                           ;Projeto_TI.c: 222: {
  1263                           ;Projeto_TI.c: 223: printf("\fProximo trem:\nAprox. 9 min.");
  1264  009D  3006               	movlw	low(STR_4|8000h)
  1265  009E  00A7               	movwf	(?_printf)
  1266  009F  3085               	movlw	high(STR_4|8000h)
  1267  00A0  00A8               	movwf	((?_printf))+1
  1268  00A1  118A  25F9  118A   	fcall	_printf
  1269                           	line	224
  1270                           	
  1271  00A4                     l4799:	
  1272                           ;Projeto_TI.c: 224: flagmin=0;
  1273  00A4  1283               	bcf	status, 5	;RP0=0, select bank0
  1274  00A5  1303               	bcf	status, 6	;RP1=0, select bank0
  1275  00A6  01B1               	clrf	(_flagmin)
  1276  00A7  28A8               	goto	l4801
  1277                           	line	225
  1278                           	
  1279  00A8                     l1889:	
  1280                           	line	226
  1281                           	
  1282  00A8                     l4801:	
  1283                           ;Projeto_TI.c: 225: }
  1284                           ;Projeto_TI.c: 226: if(minutos==3 && flagmin==1 && ready==1)
  1285  00A8  0834               	movf	(_minutos),w
  1286  00A9  3A03               	xorlw	03h
  1287  00AA  1D03               	skipz
  1288  00AB  28AD               	goto	u3181
  1289  00AC  28AE               	goto	u3180
  1290  00AD                     u3181:
  1291  00AD  28C5               	goto	l4811
  1292  00AE                     u3180:
  1293                           	
  1294  00AE                     l4803:	
  1295  00AE  0831               	movf	(_flagmin),w
  1296  00AF  3A01               	xorlw	01h
  1297  00B0  1D03               	skipz
  1298  00B1  28B3               	goto	u3191
  1299  00B2  28B4               	goto	u3190
  1300  00B3                     u3191:
  1301  00B3  28C5               	goto	l4811
  1302  00B4                     u3190:
  1303                           	
  1304  00B4                     l4805:	
  1305  00B4  087B               	movf	(_ready),w
  1306  00B5  3A01               	xorlw	01h
  1307  00B6  1D03               	skipz
  1308  00B7  28B9               	goto	u3201
  1309  00B8  28BA               	goto	u3200
  1310  00B9                     u3201:
  1311  00B9  28C5               	goto	l4811
  1312  00BA                     u3200:
  1313                           	line	228
  1314                           	
  1315  00BA                     l4807:	
  1316                           ;Projeto_TI.c: 227: {
  1317                           ;Projeto_TI.c: 228: printf("\fProximo trem:\nAprox. 8 min.");
  1318  00BA  30E9               	movlw	low(STR_5|8000h)
  1319  00BB  00A7               	movwf	(?_printf)
  1320  00BC  3084               	movlw	high(STR_5|8000h)
  1321  00BD  00A8               	movwf	((?_printf))+1
  1322  00BE  118A  25F9  118A   	fcall	_printf
  1323                           	line	229
  1324                           	
  1325  00C1                     l4809:	
  1326                           ;Projeto_TI.c: 229: flagmin=0;
  1327  00C1  1283               	bcf	status, 5	;RP0=0, select bank0
  1328  00C2  1303               	bcf	status, 6	;RP1=0, select bank0
  1329  00C3  01B1               	clrf	(_flagmin)
  1330  00C4  28C5               	goto	l4811
  1331                           	line	230
  1332                           	
  1333  00C5                     l1890:	
  1334                           	line	231
  1335                           	
  1336  00C5                     l4811:	
  1337                           ;Projeto_TI.c: 230: }
  1338                           ;Projeto_TI.c: 231: if(minutos==4 && flagmin==1 && ready==1)
  1339  00C5  0834               	movf	(_minutos),w
  1340  00C6  3A04               	xorlw	04h
  1341  00C7  1D03               	skipz
  1342  00C8  28CA               	goto	u3211
  1343  00C9  28CB               	goto	u3210
  1344  00CA                     u3211:
  1345  00CA  28E2               	goto	l4821
  1346  00CB                     u3210:
  1347                           	
  1348  00CB                     l4813:	
  1349  00CB  0831               	movf	(_flagmin),w
  1350  00CC  3A01               	xorlw	01h
  1351  00CD  1D03               	skipz
  1352  00CE  28D0               	goto	u3221
  1353  00CF  28D1               	goto	u3220
  1354  00D0                     u3221:
  1355  00D0  28E2               	goto	l4821
  1356  00D1                     u3220:
  1357                           	
  1358  00D1                     l4815:	
  1359  00D1  087B               	movf	(_ready),w
  1360  00D2  3A01               	xorlw	01h
  1361  00D3  1D03               	skipz
  1362  00D4  28D6               	goto	u3231
  1363  00D5  28D7               	goto	u3230
  1364  00D6                     u3231:
  1365  00D6  28E2               	goto	l4821
  1366  00D7                     u3230:
  1367                           	line	233
  1368                           	
  1369  00D7                     l4817:	
  1370                           ;Projeto_TI.c: 232: {
  1371                           ;Projeto_TI.c: 233: printf("\fProximo trem:\nAprox. 7 min.");
  1372  00D7  30CC               	movlw	low(STR_6|8000h)
  1373  00D8  00A7               	movwf	(?_printf)
  1374  00D9  3084               	movlw	high(STR_6|8000h)
  1375  00DA  00A8               	movwf	((?_printf))+1
  1376  00DB  118A  25F9  118A   	fcall	_printf
  1377                           	line	234
  1378                           	
  1379  00DE                     l4819:	
  1380                           ;Projeto_TI.c: 234: flagmin=0;
  1381  00DE  1283               	bcf	status, 5	;RP0=0, select bank0
  1382  00DF  1303               	bcf	status, 6	;RP1=0, select bank0
  1383  00E0  01B1               	clrf	(_flagmin)
  1384  00E1  28E2               	goto	l4821
  1385                           	line	235
  1386                           	
  1387  00E2                     l1891:	
  1388                           	line	236
  1389                           	
  1390  00E2                     l4821:	
  1391                           ;Projeto_TI.c: 235: }
  1392                           ;Projeto_TI.c: 236: if(minutos==5 && flagmin==1 && ready==1)
  1393  00E2  0834               	movf	(_minutos),w
  1394  00E3  3A05               	xorlw	05h
  1395  00E4  1D03               	skipz
  1396  00E5  28E7               	goto	u3241
  1397  00E6  28E8               	goto	u3240
  1398  00E7                     u3241:
  1399  00E7  28FF               	goto	l4831
  1400  00E8                     u3240:
  1401                           	
  1402  00E8                     l4823:	
  1403  00E8  0831               	movf	(_flagmin),w
  1404  00E9  3A01               	xorlw	01h
  1405  00EA  1D03               	skipz
  1406  00EB  28ED               	goto	u3251
  1407  00EC  28EE               	goto	u3250
  1408  00ED                     u3251:
  1409  00ED  28FF               	goto	l4831
  1410  00EE                     u3250:
  1411                           	
  1412  00EE                     l4825:	
  1413  00EE  087B               	movf	(_ready),w
  1414  00EF  3A01               	xorlw	01h
  1415  00F0  1D03               	skipz
  1416  00F1  28F3               	goto	u3261
  1417  00F2  28F4               	goto	u3260
  1418  00F3                     u3261:
  1419  00F3  28FF               	goto	l4831
  1420  00F4                     u3260:
  1421                           	line	238
  1422                           	
  1423  00F4                     l4827:	
  1424                           ;Projeto_TI.c: 237: {
  1425                           ;Projeto_TI.c: 238: printf("\fProximo trem:\nAprox. 6 min.");
  1426  00F4  30AF               	movlw	low(STR_7|8000h)
  1427  00F5  00A7               	movwf	(?_printf)
  1428  00F6  3084               	movlw	high(STR_7|8000h)
  1429  00F7  00A8               	movwf	((?_printf))+1
  1430  00F8  118A  25F9  118A   	fcall	_printf
  1431                           	line	239
  1432                           	
  1433  00FB                     l4829:	
  1434                           ;Projeto_TI.c: 239: flagmin=0;
  1435  00FB  1283               	bcf	status, 5	;RP0=0, select bank0
  1436  00FC  1303               	bcf	status, 6	;RP1=0, select bank0
  1437  00FD  01B1               	clrf	(_flagmin)
  1438  00FE  28FF               	goto	l4831
  1439                           	line	240
  1440                           	
  1441  00FF                     l1892:	
  1442                           	line	241
  1443                           	
  1444  00FF                     l4831:	
  1445                           ;Projeto_TI.c: 240: }
  1446                           ;Projeto_TI.c: 241: if(minutos==6 && flagmin==1 && ready==1)
  1447  00FF  0834               	movf	(_minutos),w
  1448  0100  3A06               	xorlw	06h
  1449  0101  1D03               	skipz
  1450  0102  2904               	goto	u3271
  1451  0103  2905               	goto	u3270
  1452  0104                     u3271:
  1453  0104  291C               	goto	l4841
  1454  0105                     u3270:
  1455                           	
  1456  0105                     l4833:	
  1457  0105  0831               	movf	(_flagmin),w
  1458  0106  3A01               	xorlw	01h
  1459  0107  1D03               	skipz
  1460  0108  290A               	goto	u3281
  1461  0109  290B               	goto	u3280
  1462  010A                     u3281:
  1463  010A  291C               	goto	l4841
  1464  010B                     u3280:
  1465                           	
  1466  010B                     l4835:	
  1467  010B  087B               	movf	(_ready),w
  1468  010C  3A01               	xorlw	01h
  1469  010D  1D03               	skipz
  1470  010E  2910               	goto	u3291
  1471  010F  2911               	goto	u3290
  1472  0110                     u3291:
  1473  0110  291C               	goto	l4841
  1474  0111                     u3290:
  1475                           	line	243
  1476                           	
  1477  0111                     l4837:	
  1478                           ;Projeto_TI.c: 242: {
  1479                           ;Projeto_TI.c: 243: printf("\fProximo trem:\nAprox. 5 min.");
  1480  0111  3092               	movlw	low(STR_8|8000h)
  1481  0112  00A7               	movwf	(?_printf)
  1482  0113  3084               	movlw	high(STR_8|8000h)
  1483  0114  00A8               	movwf	((?_printf))+1
  1484  0115  118A  25F9  118A   	fcall	_printf
  1485                           	line	244
  1486                           	
  1487  0118                     l4839:	
  1488                           ;Projeto_TI.c: 244: flagmin=0;
  1489  0118  1283               	bcf	status, 5	;RP0=0, select bank0
  1490  0119  1303               	bcf	status, 6	;RP1=0, select bank0
  1491  011A  01B1               	clrf	(_flagmin)
  1492  011B  291C               	goto	l4841
  1493                           	line	245
  1494                           	
  1495  011C                     l1893:	
  1496                           	line	246
  1497                           	
  1498  011C                     l4841:	
  1499                           ;Projeto_TI.c: 245: }
  1500                           ;Projeto_TI.c: 246: if(minutos==7 && flagmin==1 && ready==1)
  1501  011C  0834               	movf	(_minutos),w
  1502  011D  3A07               	xorlw	07h
  1503  011E  1D03               	skipz
  1504  011F  2921               	goto	u3301
  1505  0120  2922               	goto	u3300
  1506  0121                     u3301:
  1507  0121  2939               	goto	l4851
  1508  0122                     u3300:
  1509                           	
  1510  0122                     l4843:	
  1511  0122  0831               	movf	(_flagmin),w
  1512  0123  3A01               	xorlw	01h
  1513  0124  1D03               	skipz
  1514  0125  2927               	goto	u3311
  1515  0126  2928               	goto	u3310
  1516  0127                     u3311:
  1517  0127  2939               	goto	l4851
  1518  0128                     u3310:
  1519                           	
  1520  0128                     l4845:	
  1521  0128  087B               	movf	(_ready),w
  1522  0129  3A01               	xorlw	01h
  1523  012A  1D03               	skipz
  1524  012B  292D               	goto	u3321
  1525  012C  292E               	goto	u3320
  1526  012D                     u3321:
  1527  012D  2939               	goto	l4851
  1528  012E                     u3320:
  1529                           	line	248
  1530                           	
  1531  012E                     l4847:	
  1532                           ;Projeto_TI.c: 247: {
  1533                           ;Projeto_TI.c: 248: printf("\fProximo trem:\nAprox. 4 min.");
  1534  012E  3075               	movlw	low(STR_9|8000h)
  1535  012F  00A7               	movwf	(?_printf)
  1536  0130  3084               	movlw	high(STR_9|8000h)
  1537  0131  00A8               	movwf	((?_printf))+1
  1538  0132  118A  25F9  118A   	fcall	_printf
  1539                           	line	249
  1540                           	
  1541  0135                     l4849:	
  1542                           ;Projeto_TI.c: 249: flagmin=0;
  1543  0135  1283               	bcf	status, 5	;RP0=0, select bank0
  1544  0136  1303               	bcf	status, 6	;RP1=0, select bank0
  1545  0137  01B1               	clrf	(_flagmin)
  1546  0138  2939               	goto	l4851
  1547                           	line	250
  1548                           	
  1549  0139                     l1894:	
  1550                           	line	251
  1551                           	
  1552  0139                     l4851:	
  1553                           ;Projeto_TI.c: 250: }
  1554                           ;Projeto_TI.c: 251: if(minutos==8 && flagmin==1 && ready==1)
  1555  0139  0834               	movf	(_minutos),w
  1556  013A  3A08               	xorlw	08h
  1557  013B  1D03               	skipz
  1558  013C  293E               	goto	u3331
  1559  013D  293F               	goto	u3330
  1560  013E                     u3331:
  1561  013E  2956               	goto	l4861
  1562  013F                     u3330:
  1563                           	
  1564  013F                     l4853:	
  1565  013F  0831               	movf	(_flagmin),w
  1566  0140  3A01               	xorlw	01h
  1567  0141  1D03               	skipz
  1568  0142  2944               	goto	u3341
  1569  0143  2945               	goto	u3340
  1570  0144                     u3341:
  1571  0144  2956               	goto	l4861
  1572  0145                     u3340:
  1573                           	
  1574  0145                     l4855:	
  1575  0145  087B               	movf	(_ready),w
  1576  0146  3A01               	xorlw	01h
  1577  0147  1D03               	skipz
  1578  0148  294A               	goto	u3351
  1579  0149  294B               	goto	u3350
  1580  014A                     u3351:
  1581  014A  2956               	goto	l4861
  1582  014B                     u3350:
  1583                           	line	253
  1584                           	
  1585  014B                     l4857:	
  1586                           ;Projeto_TI.c: 252: {
  1587                           ;Projeto_TI.c: 253: printf("\fProximo trem:\nAprox. 3 min.");
  1588  014B  3058               	movlw	low(STR_10|8000h)
  1589  014C  00A7               	movwf	(?_printf)
  1590  014D  3084               	movlw	high(STR_10|8000h)
  1591  014E  00A8               	movwf	((?_printf))+1
  1592  014F  118A  25F9  118A   	fcall	_printf
  1593                           	line	254
  1594                           	
  1595  0152                     l4859:	
  1596                           ;Projeto_TI.c: 254: flagmin=0;
  1597  0152  1283               	bcf	status, 5	;RP0=0, select bank0
  1598  0153  1303               	bcf	status, 6	;RP1=0, select bank0
  1599  0154  01B1               	clrf	(_flagmin)
  1600  0155  2956               	goto	l4861
  1601                           	line	255
  1602                           	
  1603  0156                     l1895:	
  1604                           	line	256
  1605                           	
  1606  0156                     l4861:	
  1607                           ;Projeto_TI.c: 255: }
  1608                           ;Projeto_TI.c: 256: if(minutos==9 && flagmin==1 && ready==1)
  1609  0156  0834               	movf	(_minutos),w
  1610  0157  3A09               	xorlw	09h
  1611  0158  1D03               	skipz
  1612  0159  295B               	goto	u3361
  1613  015A  295C               	goto	u3360
  1614  015B                     u3361:
  1615  015B  2973               	goto	l4871
  1616  015C                     u3360:
  1617                           	
  1618  015C                     l4863:	
  1619  015C  0831               	movf	(_flagmin),w
  1620  015D  3A01               	xorlw	01h
  1621  015E  1D03               	skipz
  1622  015F  2961               	goto	u3371
  1623  0160  2962               	goto	u3370
  1624  0161                     u3371:
  1625  0161  2973               	goto	l4871
  1626  0162                     u3370:
  1627                           	
  1628  0162                     l4865:	
  1629  0162  087B               	movf	(_ready),w
  1630  0163  3A01               	xorlw	01h
  1631  0164  1D03               	skipz
  1632  0165  2967               	goto	u3381
  1633  0166  2968               	goto	u3380
  1634  0167                     u3381:
  1635  0167  2973               	goto	l4871
  1636  0168                     u3380:
  1637                           	line	258
  1638                           	
  1639  0168                     l4867:	
  1640                           ;Projeto_TI.c: 257: {
  1641                           ;Projeto_TI.c: 258: printf("\fProximo trem:\nAprox. 2 min.");
  1642  0168  303B               	movlw	low(STR_11|8000h)
  1643  0169  00A7               	movwf	(?_printf)
  1644  016A  3084               	movlw	high(STR_11|8000h)
  1645  016B  00A8               	movwf	((?_printf))+1
  1646  016C  118A  25F9  118A   	fcall	_printf
  1647                           	line	259
  1648                           	
  1649  016F                     l4869:	
  1650                           ;Projeto_TI.c: 259: flagmin=0;
  1651  016F  1283               	bcf	status, 5	;RP0=0, select bank0
  1652  0170  1303               	bcf	status, 6	;RP1=0, select bank0
  1653  0171  01B1               	clrf	(_flagmin)
  1654  0172  2973               	goto	l4871
  1655                           	line	260
  1656                           	
  1657  0173                     l1896:	
  1658                           	line	261
  1659                           	
  1660  0173                     l4871:	
  1661                           ;Projeto_TI.c: 260: }
  1662                           ;Projeto_TI.c: 261: if(minutos==10 && flagmin==1 && ready==1)
  1663  0173  0834               	movf	(_minutos),w
  1664  0174  3A0A               	xorlw	0Ah
  1665  0175  1D03               	skipz
  1666  0176  2978               	goto	u3391
  1667  0177  2979               	goto	u3390
  1668  0178                     u3391:
  1669  0178  2990               	goto	l4881
  1670  0179                     u3390:
  1671                           	
  1672  0179                     l4873:	
  1673  0179  0831               	movf	(_flagmin),w
  1674  017A  3A01               	xorlw	01h
  1675  017B  1D03               	skipz
  1676  017C  297E               	goto	u3401
  1677  017D  297F               	goto	u3400
  1678  017E                     u3401:
  1679  017E  2990               	goto	l4881
  1680  017F                     u3400:
  1681                           	
  1682  017F                     l4875:	
  1683  017F  087B               	movf	(_ready),w
  1684  0180  3A01               	xorlw	01h
  1685  0181  1D03               	skipz
  1686  0182  2984               	goto	u3411
  1687  0183  2985               	goto	u3410
  1688  0184                     u3411:
  1689  0184  2990               	goto	l4881
  1690  0185                     u3410:
  1691                           	line	263
  1692                           	
  1693  0185                     l4877:	
  1694                           ;Projeto_TI.c: 262: {
  1695                           ;Projeto_TI.c: 263: printf("\fProximo trem:\nAprox. 1 min.");
  1696  0185  301E               	movlw	low(STR_12|8000h)
  1697  0186  00A7               	movwf	(?_printf)
  1698  0187  3084               	movlw	high(STR_12|8000h)
  1699  0188  00A8               	movwf	((?_printf))+1
  1700  0189  118A  25F9  118A   	fcall	_printf
  1701                           	line	264
  1702                           	
  1703  018C                     l4879:	
  1704                           ;Projeto_TI.c: 264: flagmin=0;
  1705  018C  1283               	bcf	status, 5	;RP0=0, select bank0
  1706  018D  1303               	bcf	status, 6	;RP1=0, select bank0
  1707  018E  01B1               	clrf	(_flagmin)
  1708  018F  2990               	goto	l4881
  1709                           	line	265
  1710                           	
  1711  0190                     l1897:	
  1712                           	line	266
  1713                           	
  1714  0190                     l4881:	
  1715                           ;Projeto_TI.c: 265: }
  1716                           ;Projeto_TI.c: 266: if(minutos>10)
  1717  0190  300B               	movlw	(0Bh)
  1718  0191  0234               	subwf	(_minutos),w
  1719  0192  1C03               	skipc
  1720  0193  2995               	goto	u3421
  1721  0194  2996               	goto	u3420
  1722  0195                     u3421:
  1723  0195  2997               	goto	l1898
  1724  0196                     u3420:
  1725                           	line	268
  1726                           	
  1727  0196                     l4883:	
  1728                           ;Projeto_TI.c: 267: {
  1729                           ;Projeto_TI.c: 268: minutos=0;
  1730  0196  01B4               	clrf	(_minutos)
  1731                           	line	269
  1732                           	
  1733  0197                     l1898:	
  1734                           	line	275
  1735                           ;Projeto_TI.c: 269: }
  1736                           ;Projeto_TI.c: 275: if(RA2==1){_delay((unsigned long)((100)*(4000000/4000.0)));}else{INT
                                 E=1;}
  1737  0197  1D05               	btfss	(42/8),(42)&7
  1738  0198  299A               	goto	u3431
  1739  0199  299B               	goto	u3430
  1740  019A                     u3431:
  1741  019A  29A5               	goto	l1899
  1742  019B                     u3430:
  1743                           	
  1744  019B                     l4885:	
  1745                           	opt asmopt_off
  1746  019B  3082               movlw	130
  1747  019C  00AF               movwf	((??_main+0)+0+1),f
  1748  019D  30DD               	movlw	221
  1749  019E  00AE               movwf	((??_main+0)+0),f
  1750  019F                     u3527:
  1751  019F  0BAE               	decfsz	((??_main+0)+0),f
  1752  01A0  299F               	goto	u3527
  1753  01A1  0BAF               	decfsz	((??_main+0)+0+1),f
  1754  01A2  299F               	goto	u3527
  1755  01A3  29A4               	nop2
  1756                           opt asmopt_on
  1757                           
  1758  01A4  29A7               	goto	l4887
  1759                           	
  1760  01A5                     l1899:	
  1761  01A5  160B               	bsf	(92/8),(92)&7
  1762  01A6  29A7               	goto	l4887
  1763                           	
  1764  01A7                     l1900:	
  1765                           	line	282
  1766                           	
  1767  01A7                     l4887:	
  1768                           ;Projeto_TI.c: 282: if(ini==1)
  1769  01A7  1283               	bcf	status, 5	;RP0=0, select bank0
  1770  01A8  1303               	bcf	status, 6	;RP1=0, select bank0
  1771  01A9  0833               	movf	(_ini),w
  1772  01AA  3A01               	xorlw	01h
  1773  01AB  1D03               	skipz
  1774  01AC  29AE               	goto	u3441
  1775  01AD  29AF               	goto	u3440
  1776  01AE                     u3441:
  1777  01AE  283C               	goto	l4763
  1778  01AF                     u3440:
  1779                           	line	285
  1780                           	
  1781  01AF                     l4889:	
  1782                           ;Projeto_TI.c: 283: {
  1783                           ;Projeto_TI.c: 285: if(wait){_delay((unsigned long)((1000)*(4000000/4000.0))); wait=0;}
  1784  01AF  0835               	movf	(_wait),w
  1785  01B0  1D03               	skipz
  1786  01B1  29B3               	goto	u3450
  1787  01B2  29C3               	goto	l1902
  1788  01B3                     u3450:
  1789                           	
  1790  01B3                     l4891:	
  1791                           	opt asmopt_off
  1792  01B3  3006               movlw  6
  1793  01B4  00B0               movwf	((??_main+0)+0+2),f
  1794  01B5  3013               movlw	19
  1795  01B6  00AF               movwf	((??_main+0)+0+1),f
  1796  01B7  30B1               	movlw	177
  1797  01B8  00AE               movwf	((??_main+0)+0),f
  1798  01B9                     u3537:
  1799  01B9  0BAE               	decfsz	((??_main+0)+0),f
  1800  01BA  29B9               	goto	u3537
  1801  01BB  0BAF               	decfsz	((??_main+0)+0+1),f
  1802  01BC  29B9               	goto	u3537
  1803  01BD  0BB0               	decfsz	((??_main+0)+0+2),f
  1804  01BE  29B9               	goto	u3537
  1805  01BF  29C0               	nop2
  1806                           opt asmopt_on
  1807                           
  1808                           	
  1809  01C0                     l4893:	
  1810  01C0  1283               	bcf	status, 5	;RP0=0, select bank0
  1811  01C1  1303               	bcf	status, 6	;RP1=0, select bank0
  1812  01C2  01B5               	clrf	(_wait)
  1813                           	
  1814  01C3                     l1902:	
  1815                           	line	288
  1816                           ;Projeto_TI.c: 288: if(flagstat){
  1817  01C3  0832               	movf	(_flagstat),w
  1818  01C4  1D03               	skipz
  1819  01C5  29C7               	goto	u3460
  1820  01C6  29E2               	goto	l4905
  1821  01C7                     u3460:
  1822                           	line	290
  1823                           	
  1824  01C7                     l4895:	
  1825                           ;Projeto_TI.c: 290: _delay((unsigned long)((150)*(4000000/4000.0)));
  1826                           	opt asmopt_off
  1827  01C7  30C3               movlw	195
  1828  01C8  00AF               movwf	((??_main+0)+0+1),f
  1829  01C9  30CD               	movlw	205
  1830  01CA  00AE               movwf	((??_main+0)+0),f
  1831  01CB                     u3547:
  1832  01CB  0BAE               	decfsz	((??_main+0)+0),f
  1833  01CC  29CB               	goto	u3547
  1834  01CD  0BAF               	decfsz	((??_main+0)+0+1),f
  1835  01CE  29CB               	goto	u3547
  1836                           opt asmopt_on
  1837                           
  1838                           	line	291
  1839                           ;Projeto_TI.c: 291: if(flagstat && !seg){
  1840  01CF  1283               	bcf	status, 5	;RP0=0, select bank0
  1841  01D0  1303               	bcf	status, 6	;RP1=0, select bank0
  1842  01D1  0832               	movf	(_flagstat),w
  1843  01D2  1D03               	skipz
  1844  01D3  29D5               	goto	u3470
  1845  01D4  283C               	goto	l4763
  1846  01D5                     u3470:
  1847                           	
  1848  01D5                     l4897:	
  1849  01D5  1978               	btfsc	(_seg/8),(_seg)&7
  1850  01D6  29D8               	goto	u3481
  1851  01D7  29D9               	goto	u3480
  1852  01D8                     u3481:
  1853  01D8  283C               	goto	l4763
  1854  01D9                     u3480:
  1855                           	line	292
  1856                           	
  1857  01D9                     l4899:	
  1858                           ;Projeto_TI.c: 292: RA5=0;
  1859  01D9  1285               	bcf	(45/8),(45)&7
  1860                           	line	293
  1861                           ;Projeto_TI.c: 293: RA4=1;
  1862  01DA  1605               	bsf	(44/8),(44)&7
  1863                           	line	294
  1864                           ;Projeto_TI.c: 294: ready=0;
  1865  01DB  01FB               	clrf	(_ready)
  1866                           	line	295
  1867                           	
  1868  01DC                     l4901:	
  1869                           ;Projeto_TI.c: 295: flagmin=1;
  1870  01DC  01B1               	clrf	(_flagmin)
  1871  01DD  1403               	bsf	status,0
  1872  01DE  0DB1               	rlf	(_flagmin),f
  1873                           	line	296
  1874                           	
  1875  01DF                     l4903:	
  1876                           ;Projeto_TI.c: 296: conex=1;
  1877  01DF  1478               	bsf	(_conex/8),(_conex)&7
  1878  01E0  283C               	goto	l4763
  1879                           	line	297
  1880                           	
  1881  01E1                     l1904:	
  1882                           	line	298
  1883                           ;Projeto_TI.c: 297: }
  1884                           ;Projeto_TI.c: 298: }
  1885  01E1  283C               	goto	l4763
  1886                           	line	299
  1887                           	
  1888  01E2                     l1903:	
  1889                           	
  1890  01E2                     l4905:	
  1891                           ;Projeto_TI.c: 299: else if(!flagstat && !seg){
  1892  01E2  08B2               	movf	(_flagstat),f
  1893  01E3  1D03               	skipz
  1894  01E4  29E6               	goto	u3491
  1895  01E5  29E7               	goto	u3490
  1896  01E6                     u3491:
  1897  01E6  283C               	goto	l4763
  1898  01E7                     u3490:
  1899                           	
  1900  01E7                     l4907:	
  1901  01E7  1978               	btfsc	(_seg/8),(_seg)&7
  1902  01E8  29EA               	goto	u3501
  1903  01E9  29EB               	goto	u3500
  1904  01EA                     u3501:
  1905  01EA  283C               	goto	l4763
  1906  01EB                     u3500:
  1907                           	line	300
  1908                           	
  1909  01EB                     l4909:	
  1910                           ;Projeto_TI.c: 300: ready=1;
  1911  01EB  01FB               	clrf	(_ready)
  1912  01EC  1403               	bsf	status,0
  1913  01ED  0DFB               	rlf	(_ready),f
  1914                           	line	301
  1915                           	
  1916  01EE                     l4911:	
  1917                           ;Projeto_TI.c: 301: RA5=1;
  1918  01EE  1685               	bsf	(45/8),(45)&7
  1919                           	line	302
  1920                           	
  1921  01EF                     l4913:	
  1922                           ;Projeto_TI.c: 302: RA4=0;
  1923  01EF  1205               	bcf	(44/8),(44)&7
  1924                           	line	303
  1925                           	
  1926  01F0                     l4915:	
  1927                           ;Projeto_TI.c: 303: if(conex){
  1928  01F0  1C78               	btfss	(_conex/8),(_conex)&7
  1929  01F1  29F3               	goto	u3511
  1930  01F2  29F4               	goto	u3510
  1931  01F3                     u3511:
  1932  01F3  283C               	goto	l4763
  1933  01F4                     u3510:
  1934                           	line	304
  1935                           	
  1936  01F4                     l4917:	
  1937                           ;Projeto_TI.c: 304: flagmin=1;
  1938  01F4  01B1               	clrf	(_flagmin)
  1939  01F5  1403               	bsf	status,0
  1940  01F6  0DB1               	rlf	(_flagmin),f
  1941                           	line	305
  1942                           	
  1943  01F7                     l4919:	
  1944                           ;Projeto_TI.c: 305: conex=0;
  1945  01F7  1078               	bcf	(_conex/8),(_conex)&7
  1946  01F8  283C               	goto	l4763
  1947                           	line	306
  1948                           	
  1949  01F9                     l1907:	
  1950  01F9  283C               	goto	l4763
  1951                           	line	307
  1952                           	
  1953  01FA                     l1906:	
  1954  01FA  283C               	goto	l4763
  1955                           	line	308
  1956                           	
  1957  01FB                     l1905:	
  1958  01FB  283C               	goto	l4763
  1959                           	
  1960  01FC                     l1901:	
  1961  01FC  283C               	goto	l4763
  1962                           	line	309
  1963                           	
  1964  01FD                     l1908:	
  1965                           	line	197
  1966  01FD  283C               	goto	l4763
  1967                           	
  1968  01FE                     l1909:	
  1969                           	line	312
  1970                           	
  1971  01FE                     l1910:	
  1972                           	global	start
  1973  01FE  118A  2811         	ljmp	start
  1974                           	opt stack 0
  1975                           GLOBAL	__end_of_main
  1976  0200                     	__end_of_main:
  1977 ;; =============== function _main ends ============
  1978                           
  1979                           	signat	_main,88
  1980                           	global	_printf
  1981                           psect	text327,local,class=CODE,delta=2
  1982                           global __ptext327
  1983  05F9                     __ptext327:
  1984                           
  1985 ;; *************** function _printf *****************
  1986 ;; Defined at:
  1987 ;;		line 461 in file "C:\Program Files (x86)\HI-TECH Software\PICC\9.83\lib\doprnt.c"
  1988 ;; Parameters:    Size  Location     Type
  1989 ;;  f               2    7[BANK0 ] PTR const unsigned char 
  1990 ;;		 -> STR_12(29), STR_11(29), STR_10(29), STR_9(29), 
  1991 ;;		 -> STR_8(29), STR_7(29), STR_6(29), STR_5(29), 
  1992 ;;		 -> STR_4(29), STR_3(30), STR_2(26), STR_1(2), 
  1993 ;; Auto vars:     Size  Location     Type
  1994 ;;  _val            4    0        struct .
  1995 ;;  c               1   13[BANK0 ] char 
  1996 ;;  ap              1   12[BANK0 ] PTR void [1]
  1997 ;;		 -> ?_printf(2), 
  1998 ;;  flag            1    0        unsigned char 
  1999 ;;  prec            1    0        char 
  2000 ;; Return value:  Size  Location     Type
  2001 ;;                  2    7[BANK0 ] int 
  2002 ;; Registers used:
  2003 ;;		wreg, fsr0l, fsr0h, status,2, status,0, btemp+1, pclath, cstack
  2004 ;; Tracked objects:
  2005 ;;		On entry : 0/0
  2006 ;;		On exit  : 0/0
  2007 ;;		Unchanged: 0/0
  2008 ;; Data sizes:     COMMON   BANK0   BANK1   BANK2
  2009 ;;      Params:         0       2       0       0
  2010 ;;      Locals:         0       2       0       0
  2011 ;;      Temps:          0       3       0       0
  2012 ;;      Totals:         0       7       0       0
  2013 ;;Total ram usage:        7 bytes
  2014 ;; Hardware stack levels used:    1
  2015 ;; Hardware stack levels required when called:    6
  2016 ;; This function calls:
  2017 ;;		_putch
  2018 ;; This function is called by:
  2019 ;;		_main
  2020 ;; This function uses a non-reentrant model
  2021 ;;
  2022                           psect	text327
  2023                           	file	"C:\Program Files (x86)\HI-TECH Software\PICC\9.83\sources\doprnt.c"
  2024                           	line	461
  2025                           	global	__size_of_printf
  2026  0027                     	__size_of_printf	equ	__end_of_printf-_printf
  2027                           	
  2028  05F9                     _printf:	
  2029                           	opt	stack 1
  2030                           ; Regs used in _printf: [wreg-fsr0h+status,2+status,0+btemp+1+pclath+cstack]
  2031                           	line	537
  2032                           	
  2033  05F9                     l4715:	
  2034  05F9  3029               	movlw	(?_printf+02h)&0ffh
  2035  05FA  1283               	bcf	status, 5	;RP0=0, select bank0
  2036  05FB  1303               	bcf	status, 6	;RP1=0, select bank0
  2037  05FC  00A9               	movwf	(??_printf+0)+0
  2038  05FD  0829               	movf	(??_printf+0)+0,w
  2039  05FE  00AC               	movwf	(printf@ap)
  2040                           	line	540
  2041  05FF  2E05               	goto	l4719
  2042                           	
  2043  0600                     l1918:	
  2044                           	line	545
  2045                           	
  2046  0600                     l4717:	
  2047  0600  082D               	movf	(printf@c),w
  2048  0601  118A  2689  118A   	fcall	_putch
  2049                           	line	546
  2050  0604  2E05               	goto	l4719
  2051                           	line	1525
  2052                           	
  2053  0605                     l1917:	
  2054                           	line	540
  2055                           	
  2056  0605                     l4719:	
  2057  0605  1283               	bcf	status, 5	;RP0=0, select bank0
  2058  0606  1303               	bcf	status, 6	;RP1=0, select bank0
  2059  0607  0828               	movf	(printf@f+1),w
  2060  0608  00AA               	movwf	(??_printf+0)+0+1
  2061  0609  0827               	movf	(printf@f),w
  2062  060A  00A9               	movwf	(??_printf+0)+0
  2063  060B  3001               	movlw	(01h)
  2064  060C  07A7               	addwf	(printf@f),f
  2065  060D  1803               	skipnc
  2066  060E  0AA8               	incf	(printf@f+1),f
  2067  060F  082A               	movf	1+(??_printf+0)+0,w
  2068  0610  00FF               	movwf	btemp+1
  2069  0611  0829               	movf	0+(??_printf+0)+0,w
  2070  0612  0084               	movwf	fsr0
  2071  0613  118A  235A  118A   	fcall	stringtab
  2072  0616  00AB               	movwf	(??_printf+2)+0
  2073  0617  082B               	movf	(??_printf+2)+0,w
  2074  0618  00AD               	movwf	(printf@c)
  2075  0619  08AD               	movf	((printf@c)),f
  2076  061A  1D03               	skipz
  2077  061B  2E1D               	goto	u3061
  2078  061C  2E1E               	goto	u3060
  2079  061D                     u3061:
  2080  061D  2E00               	goto	l4717
  2081  061E                     u3060:
  2082  061E  2E1F               	goto	l1920
  2083                           	
  2084  061F                     l1919:	
  2085                           	line	1533
  2086                           ;	Return value of _printf is never used
  2087                           	
  2088  061F                     l1920:	
  2089  061F  0008               	return
  2090                           	opt stack 0
  2091                           GLOBAL	__end_of_printf
  2092  0620                     	__end_of_printf:
  2093 ;; =============== function _printf ends ============
  2094                           
  2095                           	signat	_printf,602
  2096                           	global	_putch
  2097                           psect	text328,local,class=CODE,delta=2
  2098                           global __ptext328
  2099  0689                     __ptext328:
  2100                           
  2101 ;; *************** function _putch *****************
  2102 ;; Defined at:
  2103 ;;		line 125 in file "C:\Users\Claudio\Desktop\TI\PIC\LCD_ModSauer+ModCludio.c"
  2104 ;; Parameters:    Size  Location     Type
  2105 ;;  c               1    wreg     unsigned char 
  2106 ;; Auto vars:     Size  Location     Type
  2107 ;;  c               1    6[BANK0 ] unsigned char 
  2108 ;; Return value:  Size  Location     Type
  2109 ;;		None               void
  2110 ;; Registers used:
  2111 ;;		wreg, fsr0l, fsr0h, status,2, status,0, pclath, cstack
  2112 ;; Tracked objects:
  2113 ;;		On entry : 0/0
  2114 ;;		On exit  : 0/0
  2115 ;;		Unchanged: 0/0
  2116 ;; Data sizes:     COMMON   BANK0   BANK1   BANK2
  2117 ;;      Params:         0       0       0       0
  2118 ;;      Locals:         0       1       0       0
  2119 ;;      Temps:          0       0       0       0
  2120 ;;      Totals:         0       1       0       0
  2121 ;;Total ram usage:        1 bytes
  2122 ;; Hardware stack levels used:    1
  2123 ;; Hardware stack levels required when called:    5
  2124 ;; This function calls:
  2125 ;;		_lcd_putc
  2126 ;; This function is called by:
  2127 ;;		_printf
  2128 ;; This function uses a non-reentrant model
  2129 ;;
  2130                           psect	text328
  2131                           	file	"C:\Users\Claudio\Desktop\TI\PIC\LCD_ModSauer+ModCludio.c"
  2132                           	line	125
  2133                           	global	__size_of_putch
  2134  0008                     	__size_of_putch	equ	__end_of_putch-_putch
  2135                           	
  2136  0689                     _putch:	
  2137                           	opt	stack 1
  2138                           ; Regs used in _putch: [wreg-fsr0h+status,2+status,0+pclath+cstack]
  2139                           ;putch@c stored from wreg
  2140  0689  1283               	bcf	status, 5	;RP0=0, select bank0
  2141  068A  1303               	bcf	status, 6	;RP1=0, select bank0
  2142  068B  00A6               	movwf	(putch@c)
  2143                           	line	126
  2144                           	
  2145  068C                     l4713:	
  2146                           ;LCD_ModSauer+ModCludio.c: 126: lcd_putc(c);
  2147  068C  0826               	movf	(putch@c),w
  2148  068D  118A  253F  118A   	fcall	_lcd_putc
  2149                           	line	127
  2150                           	
  2151  0690                     l920:	
  2152  0690  0008               	return
  2153                           	opt stack 0
  2154                           GLOBAL	__end_of_putch
  2155  0691                     	__end_of_putch:
  2156 ;; =============== function _putch ends ============
  2157                           
  2158                           	signat	_putch,4216
  2159                           	global	_lcd_init
  2160                           psect	text329,local,class=CODE,delta=2
  2161                           global __ptext329
  2162  058B                     __ptext329:
  2163                           
  2164 ;; *************** function _lcd_init *****************
  2165 ;; Defined at:
  2166 ;;		line 99 in file "C:\Users\Claudio\Desktop\TI\PIC\LCD_ModSauer+ModCludio.c"
  2167 ;; Parameters:    Size  Location     Type
  2168 ;;		None
  2169 ;; Auto vars:     Size  Location     Type
  2170 ;;  init_value      1    7[BANK0 ] unsigned char 
  2171 ;; Return value:  Size  Location     Type
  2172 ;;		None               void
  2173 ;; Registers used:
  2174 ;;		wreg, status,2, status,0, pclath, cstack
  2175 ;; Tracked objects:
  2176 ;;		On entry : 0/0
  2177 ;;		On exit  : 0/0
  2178 ;;		Unchanged: 0/0
  2179 ;; Data sizes:     COMMON   BANK0   BANK1   BANK2
  2180 ;;      Params:         0       0       0       0
  2181 ;;      Locals:         0       1       0       0
  2182 ;;      Temps:          0       2       0       0
  2183 ;;      Totals:         0       3       0       0
  2184 ;;Total ram usage:        3 bytes
  2185 ;; Hardware stack levels used:    1
  2186 ;; Hardware stack levels required when called:    4
  2187 ;; This function calls:
  2188 ;;		_lcd_write
  2189 ;;		_lcd_clear
  2190 ;; This function is called by:
  2191 ;;		_main
  2192 ;; This function uses a non-reentrant model
  2193 ;;
  2194                           psect	text329
  2195                           	file	"C:\Users\Claudio\Desktop\TI\PIC\LCD_ModSauer+ModCludio.c"
  2196                           	line	99
  2197                           	global	__size_of_lcd_init
  2198  0045                     	__size_of_lcd_init	equ	__end_of_lcd_init-_lcd_init
  2199                           	
  2200  058B                     _lcd_init:	
  2201                           	opt	stack 3
  2202                           ; Regs used in _lcd_init: [wreg+status,2+status,0+pclath+cstack]
  2203                           	line	101
  2204                           	
  2205  058B                     l4683:	
  2206                           ;LCD_ModSauer+ModCludio.c: 100: char init_value;
  2207                           ;LCD_ModSauer+ModCludio.c: 101: init_value = 0x3;
  2208  058B  3003               	movlw	(03h)
  2209  058C  1283               	bcf	status, 5	;RP0=0, select bank0
  2210  058D  1303               	bcf	status, 6	;RP1=0, select bank0
  2211  058E  00A5               	movwf	(??_lcd_init+0)+0
  2212  058F  0825               	movf	(??_lcd_init+0)+0,w
  2213  0590  00A7               	movwf	(lcd_init@init_value)
  2214                           	line	103
  2215                           	
  2216  0591                     l4685:	
  2217                           ;LCD_ModSauer+ModCludio.c: 103: RA0 = 0;
  2218  0591  1005               	bcf	(40/8),(40)&7
  2219                           	line	104
  2220                           	
  2221  0592                     l4687:	
  2222                           ;LCD_ModSauer+ModCludio.c: 104: RA1 = 0;
  2223  0592  1085               	bcf	(41/8),(41)&7
  2224                           	line	107
  2225                           ;LCD_ModSauer+ModCludio.c: 107: _delay((unsigned long)((15)*(8000000/4000.0)));
  2226                           	opt asmopt_off
  2227  0593  3027               movlw	39
  2228  0594  00A6               movwf	((??_lcd_init+0)+0+1),f
  2229  0595  30F5               	movlw	245
  2230  0596  00A5               movwf	((??_lcd_init+0)+0),f
  2231  0597                     u3557:
  2232  0597  0BA5               	decfsz	((??_lcd_init+0)+0),f
  2233  0598  2D97               	goto	u3557
  2234  0599  0BA6               	decfsz	((??_lcd_init+0)+0+1),f
  2235  059A  2D97               	goto	u3557
  2236                           opt asmopt_on
  2237                           
  2238                           	line	108
  2239                           ;LCD_ModSauer+ModCludio.c: 108: PORTC = init_value;
  2240  059B  1283               	bcf	status, 5	;RP0=0, select bank0
  2241  059C  1303               	bcf	status, 6	;RP1=0, select bank0
  2242  059D  0827               	movf	(lcd_init@init_value),w
  2243  059E  0087               	movwf	(7)	;volatile
  2244                           	line	109
  2245                           	
  2246  059F                     l4689:	
  2247                           ;LCD_ModSauer+ModCludio.c: 109: ((RA1 = 1),(RA1=0));
  2248  059F  1485               	bsf	(41/8),(41)&7
  2249                           	
  2250  05A0                     l4691:	
  2251  05A0  1085               	bcf	(41/8),(41)&7
  2252                           	line	110
  2253                           ;LCD_ModSauer+ModCludio.c: 110: _delay((unsigned long)((5)*(8000000/4000.0)));
  2254                           	opt asmopt_off
  2255  05A1  300D               movlw	13
  2256  05A2  00A6               movwf	((??_lcd_init+0)+0+1),f
  2257  05A3  30FB               	movlw	251
  2258  05A4  00A5               movwf	((??_lcd_init+0)+0),f
  2259  05A5                     u3567:
  2260  05A5  0BA5               	decfsz	((??_lcd_init+0)+0),f
  2261  05A6  2DA5               	goto	u3567
  2262  05A7  0BA6               	decfsz	((??_lcd_init+0)+0+1),f
  2263  05A8  2DA5               	goto	u3567
  2264  05A9  2DAA               	nop2
  2265                           opt asmopt_on
  2266                           
  2267                           	line	111
  2268                           	
  2269  05AA                     l4693:	
  2270                           ;LCD_ModSauer+ModCludio.c: 111: ((RA1 = 1),(RA1=0));
  2271  05AA  1283               	bcf	status, 5	;RP0=0, select bank0
  2272  05AB  1303               	bcf	status, 6	;RP1=0, select bank0
  2273  05AC  1485               	bsf	(41/8),(41)&7
  2274                           	
  2275  05AD                     l4695:	
  2276  05AD  1085               	bcf	(41/8),(41)&7
  2277                           	line	112
  2278                           ;LCD_ModSauer+ModCludio.c: 112: _delay((unsigned long)((200)*(8000000/4000000.0)));
  2279                           	opt asmopt_off
  2280  05AE  3085               movlw	133
  2281  05AF  00A5               movwf	(??_lcd_init+0)+0,f
  2282  05B0                     u3577:
  2283  05B0  0BA5               decfsz	(??_lcd_init+0)+0,f
  2284  05B1  2DB0               	goto	u3577
  2285                           opt asmopt_on
  2286                           
  2287                           	line	113
  2288                           	
  2289  05B2                     l4697:	
  2290                           ;LCD_ModSauer+ModCludio.c: 113: ((RA1 = 1),(RA1=0));
  2291  05B2  1283               	bcf	status, 5	;RP0=0, select bank0
  2292  05B3  1303               	bcf	status, 6	;RP1=0, select bank0
  2293  05B4  1485               	bsf	(41/8),(41)&7
  2294                           	
  2295  05B5                     l4699:	
  2296  05B5  1085               	bcf	(41/8),(41)&7
  2297                           	line	114
  2298                           ;LCD_ModSauer+ModCludio.c: 114: _delay((unsigned long)((200)*(8000000/4000000.0)));
  2299                           	opt asmopt_off
  2300  05B6  3085               movlw	133
  2301  05B7  00A5               movwf	(??_lcd_init+0)+0,f
  2302  05B8                     u3587:
  2303  05B8  0BA5               decfsz	(??_lcd_init+0)+0,f
  2304  05B9  2DB8               	goto	u3587
  2305                           opt asmopt_on
  2306                           
  2307                           	line	115
  2308                           ;LCD_ModSauer+ModCludio.c: 115: PORTC = 2;
  2309  05BA  3002               	movlw	(02h)
  2310  05BB  1283               	bcf	status, 5	;RP0=0, select bank0
  2311  05BC  1303               	bcf	status, 6	;RP1=0, select bank0
  2312  05BD  0087               	movwf	(7)	;volatile
  2313                           	line	116
  2314                           	
  2315  05BE                     l4701:	
  2316                           ;LCD_ModSauer+ModCludio.c: 116: ((RA1 = 1),(RA1=0));
  2317  05BE  1485               	bsf	(41/8),(41)&7
  2318                           	
  2319  05BF                     l4703:	
  2320  05BF  1085               	bcf	(41/8),(41)&7
  2321                           	line	118
  2322                           	
  2323  05C0                     l4705:	
  2324                           ;LCD_ModSauer+ModCludio.c: 118: lcd_write(0x28);
  2325  05C0  3028               	movlw	(028h)
  2326  05C1  118A  25D0  118A   	fcall	_lcd_write
  2327                           	line	119
  2328                           	
  2329  05C4                     l4707:	
  2330                           ;LCD_ModSauer+ModCludio.c: 119: lcd_write(0x0D);
  2331  05C4  300D               	movlw	(0Dh)
  2332  05C5  118A  25D0  118A   	fcall	_lcd_write
  2333                           	line	120
  2334                           	
  2335  05C8                     l4709:	
  2336                           ;LCD_ModSauer+ModCludio.c: 120: lcd_clear();
  2337  05C8  118A  265D  118A   	fcall	_lcd_clear
  2338                           	line	121
  2339                           	
  2340  05CB                     l4711:	
  2341                           ;LCD_ModSauer+ModCludio.c: 121: lcd_write(0x6);
  2342  05CB  3006               	movlw	(06h)
  2343  05CC  118A  25D0  118A   	fcall	_lcd_write
  2344                           	line	122
  2345                           	
  2346  05CF                     l917:	
  2347  05CF  0008               	return
  2348                           	opt stack 0
  2349                           GLOBAL	__end_of_lcd_init
  2350  05D0                     	__end_of_lcd_init:
  2351 ;; =============== function _lcd_init ends ============
  2352                           
  2353                           	signat	_lcd_init,88
  2354                           	global	_lcd_putc
  2355                           psect	text330,local,class=CODE,delta=2
  2356                           global __ptext330
  2357  053F                     __ptext330:
  2358                           
  2359 ;; *************** function _lcd_putc *****************
  2360 ;; Defined at:
  2361 ;;		line 52 in file "C:\Users\Claudio\Desktop\TI\PIC\LCD_ModSauer+ModCludio.c"
  2362 ;; Parameters:    Size  Location     Type
  2363 ;;  c               1    wreg     unsigned char 
  2364 ;; Auto vars:     Size  Location     Type
  2365 ;;  c               1    5[BANK0 ] unsigned char 
  2366 ;; Return value:  Size  Location     Type
  2367 ;;		None               void
  2368 ;; Registers used:
  2369 ;;		wreg, fsr0l, fsr0h, status,2, status,0, pclath, cstack
  2370 ;; Tracked objects:
  2371 ;;		On entry : 0/0
  2372 ;;		On exit  : 0/0
  2373 ;;		Unchanged: 0/0
  2374 ;; Data sizes:     COMMON   BANK0   BANK1   BANK2
  2375 ;;      Params:         0       0       0       0
  2376 ;;      Locals:         0       1       0       0
  2377 ;;      Temps:          0       0       0       0
  2378 ;;      Totals:         0       1       0       0
  2379 ;;Total ram usage:        1 bytes
  2380 ;; Hardware stack levels used:    1
  2381 ;; Hardware stack levels required when called:    4
  2382 ;; This function calls:
  2383 ;;		_lcd_clear
  2384 ;;		_lcd_goto
  2385 ;;		_lcd_write
  2386 ;;		_lcd_putc
  2387 ;; This function is called by:
  2388 ;;		_putch
  2389 ;; This function uses a non-reentrant model
  2390 ;;
  2391                           psect	text330
  2392                           	file	"C:\Users\Claudio\Desktop\TI\PIC\LCD_ModSauer+ModCludio.c"
  2393                           	line	52
  2394                           	global	__size_of_lcd_putc
  2395  004C                     	__size_of_lcd_putc	equ	__end_of_lcd_putc-_lcd_putc
  2396                           	
  2397  053F                     _lcd_putc:	
  2398                           	opt	stack 1
  2399                           ; Regs used in _lcd_putc: [wreg-fsr0h+status,2+status,0+pclath+cstack]
  2400                           ;lcd_putc@c stored from wreg
  2401  053F  1283               	bcf	status, 5	;RP0=0, select bank0
  2402  0540  1303               	bcf	status, 6	;RP1=0, select bank0
  2403  0541  00A5               	movwf	(lcd_putc@c)
  2404                           	line	53
  2405                           	
  2406  0542                     l4661:	
  2407                           ;LCD_ModSauer+ModCludio.c: 53: switch (c)
  2408  0542  2D77               	goto	l4681
  2409                           	line	55
  2410                           ;LCD_ModSauer+ModCludio.c: 54: {
  2411                           ;LCD_ModSauer+ModCludio.c: 55: case '\f':
  2412                           	
  2413  0543                     l904:	
  2414                           	line	56
  2415                           	
  2416  0543                     l4663:	
  2417                           ;LCD_ModSauer+ModCludio.c: 56: lcd_clear();
  2418  0543  118A  265D  118A   	fcall	_lcd_clear
  2419                           	line	57
  2420                           ;LCD_ModSauer+ModCludio.c: 57: break;
  2421  0546  2D8A               	goto	l911
  2422                           	line	59
  2423                           ;LCD_ModSauer+ModCludio.c: 59: case '\n':
  2424                           	
  2425  0547                     l906:	
  2426                           	line	60
  2427                           	
  2428  0547                     l4665:	
  2429                           ;LCD_ModSauer+ModCludio.c: 60: lcd_goto(0x40);
  2430  0547  3040               	movlw	(040h)
  2431  0548  118A  267F  118A   	fcall	_lcd_goto
  2432                           	line	61
  2433                           ;LCD_ModSauer+ModCludio.c: 61: break;
  2434  054B  2D8A               	goto	l911
  2435                           	line	63
  2436                           ;LCD_ModSauer+ModCludio.c: 63: case '\r':
  2437                           	
  2438  054C                     l907:	
  2439                           	line	64
  2440                           ;LCD_ModSauer+ModCludio.c: 64: RA0 = 0;
  2441  054C  1005               	bcf	(40/8),(40)&7
  2442                           	line	65
  2443                           	
  2444  054D                     l4667:	
  2445                           ;LCD_ModSauer+ModCludio.c: 65: lcd_write(0x80);
  2446  054D  3080               	movlw	(080h)
  2447  054E  118A  25D0  118A   	fcall	_lcd_write
  2448                           	line	66
  2449                           ;LCD_ModSauer+ModCludio.c: 66: break;
  2450  0551  2D8A               	goto	l911
  2451                           	line	68
  2452                           ;LCD_ModSauer+ModCludio.c: 68: case '\b':
  2453                           	
  2454  0552                     l908:	
  2455                           	line	69
  2456                           ;LCD_ModSauer+ModCludio.c: 69: RA0=0;
  2457  0552  1005               	bcf	(40/8),(40)&7
  2458                           	line	70
  2459                           	
  2460  0553                     l4669:	
  2461                           ;LCD_ModSauer+ModCludio.c: 70: lcd_write(0b0000010000);
  2462  0553  3010               	movlw	(010h)
  2463  0554  118A  25D0  118A   	fcall	_lcd_write
  2464                           	line	71
  2465                           	
  2466  0557                     l4671:	
  2467                           ;LCD_ModSauer+ModCludio.c: 71: RA0=1;
  2468  0557  1283               	bcf	status, 5	;RP0=0, select bank0
  2469  0558  1303               	bcf	status, 6	;RP1=0, select bank0
  2470  0559  1405               	bsf	(40/8),(40)&7
  2471                           	line	72
  2472                           ;LCD_ModSauer+ModCludio.c: 72: lcd_putc(32);
  2473  055A  3020               	movlw	(020h)
  2474  055B  118A  253F  118A   	fcall	_lcd_putc
  2475                           	line	73
  2476                           	
  2477  055E                     l4673:	
  2478                           ;LCD_ModSauer+ModCludio.c: 73: RA0=0;
  2479  055E  1283               	bcf	status, 5	;RP0=0, select bank0
  2480  055F  1303               	bcf	status, 6	;RP1=0, select bank0
  2481  0560  1005               	bcf	(40/8),(40)&7
  2482                           	line	74
  2483                           ;LCD_ModSauer+ModCludio.c: 74: lcd_write(0b0000010000);
  2484  0561  3010               	movlw	(010h)
  2485  0562  118A  25D0  118A   	fcall	_lcd_write
  2486                           	line	75
  2487                           ;LCD_ModSauer+ModCludio.c: 75: break;
  2488  0565  2D8A               	goto	l911
  2489                           	line	77
  2490                           ;LCD_ModSauer+ModCludio.c: 77: case '\t':
  2491                           	
  2492  0566                     l909:	
  2493                           	line	78
  2494                           ;LCD_ModSauer+ModCludio.c: 78: RA0=0;
  2495  0566  1005               	bcf	(40/8),(40)&7
  2496                           	line	79
  2497                           	
  2498  0567                     l4675:	
  2499                           ;LCD_ModSauer+ModCludio.c: 79: lcd_write(0b0000010100);
  2500  0567  3014               	movlw	(014h)
  2501  0568  118A  25D0  118A   	fcall	_lcd_write
  2502                           	line	80
  2503                           ;LCD_ModSauer+ModCludio.c: 80: lcd_write(0b0000010100);
  2504  056B  3014               	movlw	(014h)
  2505  056C  118A  25D0  118A   	fcall	_lcd_write
  2506                           	line	81
  2507                           ;LCD_ModSauer+ModCludio.c: 81: break;
  2508  056F  2D8A               	goto	l911
  2509                           	line	83
  2510                           ;LCD_ModSauer+ModCludio.c: 83: default:
  2511                           	
  2512  0570                     l910:	
  2513                           	line	84
  2514                           ;LCD_ModSauer+ModCludio.c: 84: RA0 = 1;
  2515  0570  1405               	bsf	(40/8),(40)&7
  2516                           	line	85
  2517                           	
  2518  0571                     l4677:	
  2519                           ;LCD_ModSauer+ModCludio.c: 85: lcd_write( c );
  2520  0571  0825               	movf	(lcd_putc@c),w
  2521  0572  118A  25D0  118A   	fcall	_lcd_write
  2522                           	line	86
  2523                           ;LCD_ModSauer+ModCludio.c: 86: break;
  2524  0575  2D8A               	goto	l911
  2525                           	line	87
  2526                           	
  2527  0576                     l4679:	
  2528                           ;LCD_ModSauer+ModCludio.c: 87: }
  2529  0576  2D8A               	goto	l911
  2530                           	line	53
  2531                           	
  2532  0577                     l903:	
  2533                           	
  2534  0577                     l4681:	
  2535  0577  1283               	bcf	status, 5	;RP0=0, select bank0
  2536  0578  1303               	bcf	status, 6	;RP1=0, select bank0
  2537  0579  0825               	movf	(lcd_putc@c),w
  2538                           	; Switch size 1, requested type "space"
  2539                           ; Number of cases is 5, Range of values is 8 to 13
  2540                           ; switch strategies available:
  2541                           ; Name         Instructions Cycles
  2542                           ; simple_byte           16     9 (average)
  2543                           ; direct_byte           22    10 (fixed)
  2544                           ; jumptable            263     9 (fixed)
  2545                           ;	Chosen strategy is simple_byte
  2546                           
  2547                           	opt asmopt_off
  2548  057A  3A08               	xorlw	8^0	; case 8
  2549  057B  1903               	skipnz
  2550  057C  2D52               	goto	l908
  2551  057D  3A01               	xorlw	9^8	; case 9
  2552  057E  1903               	skipnz
  2553  057F  2D66               	goto	l909
  2554  0580  3A03               	xorlw	10^9	; case 10
  2555  0581  1903               	skipnz
  2556  0582  2D47               	goto	l4665
  2557  0583  3A06               	xorlw	12^10	; case 12
  2558  0584  1903               	skipnz
  2559  0585  2D43               	goto	l4663
  2560  0586  3A01               	xorlw	13^12	; case 13
  2561  0587  1903               	skipnz
  2562  0588  2D4C               	goto	l907
  2563  0589  2D70               	goto	l910
  2564                           	opt asmopt_on
  2565                           
  2566                           	line	87
  2567                           	
  2568  058A                     l905:	
  2569                           	line	88
  2570                           	
  2571  058A                     l911:	
  2572  058A  0008               	return
  2573                           	opt stack 0
  2574                           GLOBAL	__end_of_lcd_putc
  2575  058B                     	__end_of_lcd_putc:
  2576 ;; =============== function _lcd_putc ends ============
  2577                           
  2578                           	signat	_lcd_putc,4216
  2579                           	global	_lcd_goto
  2580                           psect	text331,local,class=CODE,delta=2
  2581                           global __ptext331
  2582  067F                     __ptext331:
  2583                           
  2584 ;; *************** function _lcd_goto *****************
  2585 ;; Defined at:
  2586 ;;		line 92 in file "C:\Users\Claudio\Desktop\TI\PIC\LCD_ModSauer+ModCludio.c"
  2587 ;; Parameters:    Size  Location     Type
  2588 ;;  pos             1    wreg     unsigned char 
  2589 ;; Auto vars:     Size  Location     Type
  2590 ;;  pos             1    3[BANK0 ] unsigned char 
  2591 ;; Return value:  Size  Location     Type
  2592 ;;		None               void
  2593 ;; Registers used:
  2594 ;;		wreg, status,2, status,0, pclath, cstack
  2595 ;; Tracked objects:
  2596 ;;		On entry : 0/0
  2597 ;;		On exit  : 0/0
  2598 ;;		Unchanged: 0/0
  2599 ;; Data sizes:     COMMON   BANK0   BANK1   BANK2
  2600 ;;      Params:         0       0       0       0
  2601 ;;      Locals:         0       1       0       0
  2602 ;;      Temps:          0       0       0       0
  2603 ;;      Totals:         0       1       0       0
  2604 ;;Total ram usage:        1 bytes
  2605 ;; Hardware stack levels used:    1
  2606 ;; Hardware stack levels required when called:    3
  2607 ;; This function calls:
  2608 ;;		_lcd_write
  2609 ;; This function is called by:
  2610 ;;		_lcd_putc
  2611 ;; This function uses a non-reentrant model
  2612 ;;
  2613                           psect	text331
  2614                           	file	"C:\Users\Claudio\Desktop\TI\PIC\LCD_ModSauer+ModCludio.c"
  2615                           	line	92
  2616                           	global	__size_of_lcd_goto
  2617  000A                     	__size_of_lcd_goto	equ	__end_of_lcd_goto-_lcd_goto
  2618                           	
  2619  067F                     _lcd_goto:	
  2620                           	opt	stack 1
  2621                           ; Regs used in _lcd_goto: [wreg+status,2+status,0+pclath+cstack]
  2622                           ;lcd_goto@pos stored from wreg
  2623  067F  1283               	bcf	status, 5	;RP0=0, select bank0
  2624  0680  1303               	bcf	status, 6	;RP1=0, select bank0
  2625  0681  00A3               	movwf	(lcd_goto@pos)
  2626                           	line	93
  2627                           	
  2628  0682                     l4657:	
  2629                           ;LCD_ModSauer+ModCludio.c: 93: RA0 = 0;
  2630  0682  1005               	bcf	(40/8),(40)&7
  2631                           	line	94
  2632                           	
  2633  0683                     l4659:	
  2634                           ;LCD_ModSauer+ModCludio.c: 94: lcd_write(0x80+pos);
  2635  0683  0823               	movf	(lcd_goto@pos),w
  2636  0684  3E80               	addlw	080h
  2637  0685  118A  25D0  118A   	fcall	_lcd_write
  2638                           	line	95
  2639                           	
  2640  0688                     l914:	
  2641  0688  0008               	return
  2642                           	opt stack 0
  2643                           GLOBAL	__end_of_lcd_goto
  2644  0689                     	__end_of_lcd_goto:
  2645 ;; =============== function _lcd_goto ends ============
  2646                           
  2647                           	signat	_lcd_goto,4216
  2648                           	global	_lcd_clear
  2649                           psect	text332,local,class=CODE,delta=2
  2650                           global __ptext332
  2651  065D                     __ptext332:
  2652                           
  2653 ;; *************** function _lcd_clear *****************
  2654 ;; Defined at:
  2655 ;;		line 36 in file "C:\Users\Claudio\Desktop\TI\PIC\LCD_ModSauer+ModCludio.c"
  2656 ;; Parameters:    Size  Location     Type
  2657 ;;		None
  2658 ;; Auto vars:     Size  Location     Type
  2659 ;;		None
  2660 ;; Return value:  Size  Location     Type
  2661 ;;		None               void
  2662 ;; Registers used:
  2663 ;;		wreg, status,2, status,0, pclath, cstack
  2664 ;; Tracked objects:
  2665 ;;		On entry : 0/0
  2666 ;;		On exit  : 0/0
  2667 ;;		Unchanged: 0/0
  2668 ;; Data sizes:     COMMON   BANK0   BANK1   BANK2
  2669 ;;      Params:         0       0       0       0
  2670 ;;      Locals:         0       0       0       0
  2671 ;;      Temps:          0       2       0       0
  2672 ;;      Totals:         0       2       0       0
  2673 ;;Total ram usage:        2 bytes
  2674 ;; Hardware stack levels used:    1
  2675 ;; Hardware stack levels required when called:    3
  2676 ;; This function calls:
  2677 ;;		_lcd_write
  2678 ;; This function is called by:
  2679 ;;		_lcd_putc
  2680 ;;		_lcd_init
  2681 ;; This function uses a non-reentrant model
  2682 ;;
  2683                           psect	text332
  2684                           	file	"C:\Users\Claudio\Desktop\TI\PIC\LCD_ModSauer+ModCludio.c"
  2685                           	line	36
  2686                           	global	__size_of_lcd_clear
  2687  0013                     	__size_of_lcd_clear	equ	__end_of_lcd_clear-_lcd_clear
  2688                           	
  2689  065D                     _lcd_clear:	
  2690                           	opt	stack 1
  2691                           ; Regs used in _lcd_clear: [wreg+status,2+status,0+pclath+cstack]
  2692                           	line	37
  2693                           	
  2694  065D                     l4651:	
  2695                           ;LCD_ModSauer+ModCludio.c: 37: RA0 = 0;
  2696  065D  1283               	bcf	status, 5	;RP0=0, select bank0
  2697  065E  1303               	bcf	status, 6	;RP1=0, select bank0
  2698  065F  1005               	bcf	(40/8),(40)&7
  2699                           	line	38
  2700                           	
  2701  0660                     l4653:	
  2702                           ;LCD_ModSauer+ModCludio.c: 38: lcd_write(0x1);
  2703  0660  3001               	movlw	(01h)
  2704  0661  118A  25D0  118A   	fcall	_lcd_write
  2705                           	line	39
  2706                           	
  2707  0664                     l4655:	
  2708                           ;LCD_ModSauer+ModCludio.c: 39: _delay((unsigned long)((2)*(8000000/4000.0)));
  2709                           	opt asmopt_off
  2710  0664  3006               movlw	6
  2711  0665  1283               	bcf	status, 5	;RP0=0, select bank0
  2712  0666  1303               	bcf	status, 6	;RP1=0, select bank0
  2713  0667  00A4               movwf	((??_lcd_clear+0)+0+1),f
  2714  0668  3030               	movlw	48
  2715  0669  00A3               movwf	((??_lcd_clear+0)+0),f
  2716  066A                     u3597:
  2717  066A  0BA3               	decfsz	((??_lcd_clear+0)+0),f
  2718  066B  2E6A               	goto	u3597
  2719  066C  0BA4               	decfsz	((??_lcd_clear+0)+0+1),f
  2720  066D  2E6A               	goto	u3597
  2721  066E  0064               	clrwdt
  2722                           opt asmopt_on
  2723                           
  2724                           	line	40
  2725                           	
  2726  066F                     l894:	
  2727  066F  0008               	return
  2728                           	opt stack 0
  2729                           GLOBAL	__end_of_lcd_clear
  2730  0670                     	__end_of_lcd_clear:
  2731 ;; =============== function _lcd_clear ends ============
  2732                           
  2733                           	signat	_lcd_clear,88
  2734                           	global	_lcd_write
  2735                           psect	text333,local,class=CODE,delta=2
  2736                           global __ptext333
  2737  05D0                     __ptext333:
  2738                           
  2739 ;; *************** function _lcd_write *****************
  2740 ;; Defined at:
  2741 ;;		line 24 in file "C:\Users\Claudio\Desktop\TI\PIC\LCD_ModSauer+ModCludio.c"
  2742 ;; Parameters:    Size  Location     Type
  2743 ;;  c               1    wreg     unsigned char 
  2744 ;; Auto vars:     Size  Location     Type
  2745 ;;  c               1    2[BANK0 ] unsigned char 
  2746 ;; Return value:  Size  Location     Type
  2747 ;;		None               void
  2748 ;; Registers used:
  2749 ;;		wreg, status,2, status,0
  2750 ;; Tracked objects:
  2751 ;;		On entry : 0/0
  2752 ;;		On exit  : 0/0
  2753 ;;		Unchanged: 0/0
  2754 ;; Data sizes:     COMMON   BANK0   BANK1   BANK2
  2755 ;;      Params:         0       0       0       0
  2756 ;;      Locals:         0       1       0       0
  2757 ;;      Temps:          0       2       0       0
  2758 ;;      Totals:         0       3       0       0
  2759 ;;Total ram usage:        3 bytes
  2760 ;; Hardware stack levels used:    1
  2761 ;; Hardware stack levels required when called:    2
  2762 ;; This function calls:
  2763 ;;		Nothing
  2764 ;; This function is called by:
  2765 ;;		_lcd_clear
  2766 ;;		_lcd_putc
  2767 ;;		_lcd_goto
  2768 ;;		_lcd_init
  2769 ;;		_lcd_puts
  2770 ;; This function uses a non-reentrant model
  2771 ;;
  2772                           psect	text333
  2773                           	file	"C:\Users\Claudio\Desktop\TI\PIC\LCD_ModSauer+ModCludio.c"
  2774                           	line	24
  2775                           	global	__size_of_lcd_write
  2776  0029                     	__size_of_lcd_write	equ	__end_of_lcd_write-_lcd_write
  2777                           	
  2778  05D0                     _lcd_write:	
  2779                           	opt	stack 2
  2780                           ; Regs used in _lcd_write: [wreg+status,2+status,0]
  2781                           ;lcd_write@c stored from wreg
  2782  05D0  1283               	bcf	status, 5	;RP0=0, select bank0
  2783  05D1  1303               	bcf	status, 6	;RP1=0, select bank0
  2784  05D2  00A2               	movwf	(lcd_write@c)
  2785                           	line	25
  2786                           	
  2787  05D3                     l4633:	
  2788                           ;LCD_ModSauer+ModCludio.c: 25: _delay((unsigned long)((40)*(8000000/4000000.0)));
  2789                           	opt asmopt_off
  2790  05D3  301A               movlw	26
  2791  05D4  00A0               movwf	(??_lcd_write+0)+0,f
  2792  05D5                     u3607:
  2793  05D5  0BA0               decfsz	(??_lcd_write+0)+0,f
  2794  05D6  2DD5               	goto	u3607
  2795  05D7  0064               	clrwdt
  2796                           opt asmopt_on
  2797                           
  2798                           	line	26
  2799                           	
  2800  05D8                     l4635:	
  2801                           ;LCD_ModSauer+ModCludio.c: 26: PORTC &= 0xF0;
  2802  05D8  30F0               	movlw	(0F0h)
  2803  05D9  1283               	bcf	status, 5	;RP0=0, select bank0
  2804  05DA  1303               	bcf	status, 6	;RP1=0, select bank0
  2805  05DB  00A0               	movwf	(??_lcd_write+0)+0
  2806  05DC  0820               	movf	(??_lcd_write+0)+0,w
  2807  05DD  0587               	andwf	(7),f	;volatile
  2808                           	line	27
  2809                           	
  2810  05DE                     l4637:	
  2811                           ;LCD_ModSauer+ModCludio.c: 27: PORTC |= ( ( c >> 4 ) & 0x0F );
  2812  05DE  0822               	movf	(lcd_write@c),w
  2813  05DF  00A0               	movwf	(??_lcd_write+0)+0
  2814  05E0  3004               	movlw	04h
  2815  05E1                     u3055:
  2816  05E1  1003               	clrc
  2817  05E2  0CA0               	rrf	(??_lcd_write+0)+0,f
  2818  05E3  3EFF               	addlw	-1
  2819  05E4  1D03               	skipz
  2820  05E5  2DE1               	goto	u3055
  2821  05E6  0820               	movf	0+(??_lcd_write+0)+0,w
  2822  05E7  390F               	andlw	0Fh
  2823  05E8  00A1               	movwf	(??_lcd_write+1)+0
  2824  05E9  0821               	movf	(??_lcd_write+1)+0,w
  2825  05EA  0487               	iorwf	(7),f	;volatile
  2826                           	line	28
  2827                           	
  2828  05EB                     l4639:	
  2829                           ;LCD_ModSauer+ModCludio.c: 28: ((RA1 = 1),(RA1=0));
  2830  05EB  1485               	bsf	(41/8),(41)&7
  2831                           	
  2832  05EC                     l4641:	
  2833  05EC  1085               	bcf	(41/8),(41)&7
  2834                           	line	29
  2835                           	
  2836  05ED                     l4643:	
  2837                           ;LCD_ModSauer+ModCludio.c: 29: PORTC &=0xF0;
  2838  05ED  30F0               	movlw	(0F0h)
  2839  05EE  00A0               	movwf	(??_lcd_write+0)+0
  2840  05EF  0820               	movf	(??_lcd_write+0)+0,w
  2841  05F0  0587               	andwf	(7),f	;volatile
  2842                           	line	30
  2843                           	
  2844  05F1                     l4645:	
  2845                           ;LCD_ModSauer+ModCludio.c: 30: PORTC |= ( c & 0x0F );
  2846  05F1  0822               	movf	(lcd_write@c),w
  2847  05F2  390F               	andlw	0Fh
  2848  05F3  00A0               	movwf	(??_lcd_write+0)+0
  2849  05F4  0820               	movf	(??_lcd_write+0)+0,w
  2850  05F5  0487               	iorwf	(7),f	;volatile
  2851                           	line	31
  2852                           	
  2853  05F6                     l4647:	
  2854                           ;LCD_ModSauer+ModCludio.c: 31: ((RA1 = 1),(RA1=0));
  2855  05F6  1485               	bsf	(41/8),(41)&7
  2856                           	
  2857  05F7                     l4649:	
  2858  05F7  1085               	bcf	(41/8),(41)&7
  2859                           	line	32
  2860                           	
  2861  05F8                     l891:	
  2862  05F8  0008               	return
  2863                           	opt stack 0
  2864                           GLOBAL	__end_of_lcd_write
  2865  05F9                     	__end_of_lcd_write:
  2866 ;; =============== function _lcd_write ends ============
  2867                           
  2868                           	signat	_lcd_write,4216
  2869                           	global	_serial_init
  2870                           psect	text334,local,class=CODE,delta=2
  2871                           global __ptext334
  2872  0646                     __ptext334:
  2873                           
  2874 ;; *************** function _serial_init *****************
  2875 ;; Defined at:
  2876 ;;		line 148 in file "C:\Users\Claudio\Desktop\TI\PIC\Projeto_TI.c"
  2877 ;; Parameters:    Size  Location     Type
  2878 ;;		None
  2879 ;; Auto vars:     Size  Location     Type
  2880 ;;		None
  2881 ;; Return value:  Size  Location     Type
  2882 ;;		None               void
  2883 ;; Registers used:
  2884 ;;		wreg, status,2
  2885 ;; Tracked objects:
  2886 ;;		On entry : 0/0
  2887 ;;		On exit  : 0/0
  2888 ;;		Unchanged: 0/0
  2889 ;; Data sizes:     COMMON   BANK0   BANK1   BANK2
  2890 ;;      Params:         0       0       0       0
  2891 ;;      Locals:         0       0       0       0
  2892 ;;      Temps:          0       0       0       0
  2893 ;;      Totals:         0       0       0       0
  2894 ;;Total ram usage:        0 bytes
  2895 ;; Hardware stack levels used:    1
  2896 ;; Hardware stack levels required when called:    2
  2897 ;; This function calls:
  2898 ;;		Nothing
  2899 ;; This function is called by:
  2900 ;;		_main
  2901 ;; This function uses a non-reentrant model
  2902 ;;
  2903                           psect	text334
  2904                           	file	"C:\Users\Claudio\Desktop\TI\PIC\Projeto_TI.c"
  2905                           	line	148
  2906                           	global	__size_of_serial_init
  2907  0017                     	__size_of_serial_init	equ	__end_of_serial_init-_serial_init
  2908                           	
  2909  0646                     _serial_init:	
  2910                           	opt	stack 5
  2911                           ; Regs used in _serial_init: [wreg+status,2]
  2912                           	line	149
  2913                           	
  2914  0646                     l4611:	
  2915                           ;Projeto_TI.c: 149: SYNC=0;
  2916  0646  1683               	bsf	status, 5	;RP0=1, select bank1
  2917  0647  1303               	bcf	status, 6	;RP1=0, select bank1
  2918  0648  1218               	bcf	(1220/8)^080h,(1220)&7
  2919                           	line	150
  2920                           ;Projeto_TI.c: 150: BRGH=1;
  2921  0649  1518               	bsf	(1218/8)^080h,(1218)&7
  2922                           	line	151
  2923                           ;Projeto_TI.c: 151: BRG16=1;
  2924  064A  159B               	bsf	(1243/8)^080h,(1243)&7
  2925                           	line	152
  2926                           	
  2927  064B                     l4613:	
  2928                           ;Projeto_TI.c: 152: SPBRGH=0;
  2929  064B  019A               	clrf	(154)^080h	;volatile
  2930                           	line	153
  2931                           	
  2932  064C                     l4615:	
  2933                           ;Projeto_TI.c: 153: SPBRG=103;
  2934  064C  3067               	movlw	(067h)
  2935  064D  0099               	movwf	(153)^080h	;volatile
  2936                           	line	154
  2937                           	
  2938  064E                     l4617:	
  2939                           ;Projeto_TI.c: 154: SPEN=1;
  2940  064E  1283               	bcf	status, 5	;RP0=0, select bank0
  2941  064F  1303               	bcf	status, 6	;RP1=0, select bank0
  2942  0650  1798               	bsf	(199/8),(199)&7
  2943                           	line	155
  2944                           	
  2945  0651                     l4619:	
  2946                           ;Projeto_TI.c: 155: TX9=0;
  2947  0651  1683               	bsf	status, 5	;RP0=1, select bank1
  2948  0652  1303               	bcf	status, 6	;RP1=0, select bank1
  2949  0653  1318               	bcf	(1222/8)^080h,(1222)&7
  2950                           	line	156
  2951                           	
  2952  0654                     l4621:	
  2953                           ;Projeto_TI.c: 156: TXEN=1;
  2954  0654  1698               	bsf	(1221/8)^080h,(1221)&7
  2955                           	line	157
  2956                           	
  2957  0655                     l4623:	
  2958                           ;Projeto_TI.c: 157: TXIE=0;
  2959  0655  120C               	bcf	(1124/8)^080h,(1124)&7
  2960                           	line	158
  2961                           	
  2962  0656                     l4625:	
  2963                           ;Projeto_TI.c: 158: RCIE=1;
  2964  0656  168C               	bsf	(1125/8)^080h,(1125)&7
  2965                           	line	159
  2966                           	
  2967  0657                     l4627:	
  2968                           ;Projeto_TI.c: 159: PEIE=1;
  2969  0657  170B               	bsf	(94/8),(94)&7
  2970                           	line	160
  2971                           	
  2972  0658                     l4629:	
  2973                           ;Projeto_TI.c: 160: RX9=0;
  2974  0658  1283               	bcf	status, 5	;RP0=0, select bank0
  2975  0659  1303               	bcf	status, 6	;RP1=0, select bank0
  2976  065A  1318               	bcf	(198/8),(198)&7
  2977                           	line	161
  2978                           	
  2979  065B                     l4631:	
  2980                           ;Projeto_TI.c: 161: CREN=1;
  2981  065B  1618               	bsf	(196/8),(196)&7
  2982                           	line	162
  2983                           	
  2984  065C                     l1882:	
  2985  065C  0008               	return
  2986                           	opt stack 0
  2987                           GLOBAL	__end_of_serial_init
  2988  065D                     	__end_of_serial_init:
  2989 ;; =============== function _serial_init ends ============
  2990                           
  2991                           	signat	_serial_init,88
  2992                           	global	_serial
  2993                           psect	text335,local,class=CODE,delta=2
  2994                           global __ptext335
  2995  0200                     __ptext335:
  2996                           
  2997 ;; *************** function _serial *****************
  2998 ;; Defined at:
  2999 ;;		line 28 in file "C:\Users\Claudio\Desktop\TI\PIC\Projeto_TI.c"
  3000 ;; Parameters:    Size  Location     Type
  3001 ;;		None
  3002 ;; Auto vars:     Size  Location     Type
  3003 ;;  lixo            1    7[COMMON] unsigned char 
  3004 ;; Return value:  Size  Location     Type
  3005 ;;		None               void
  3006 ;; Registers used:
  3007 ;;		wreg, fsr0l, fsr0h, status,2, status,0, pclath, cstack
  3008 ;; Tracked objects:
  3009 ;;		On entry : 0/0
  3010 ;;		On exit  : 0/0
  3011 ;;		Unchanged: 0/0
  3012 ;; Data sizes:     COMMON   BANK0   BANK1   BANK2
  3013 ;;      Params:         0       0       0       0
  3014 ;;      Locals:         1       0       0       0
  3015 ;;      Temps:          5       0       0       0
  3016 ;;      Totals:         6       0       0       0
  3017 ;;Total ram usage:        6 bytes
  3018 ;; Hardware stack levels used:    1
  3019 ;; Hardware stack levels required when called:    1
  3020 ;; This function calls:
  3021 ;;		_sync
  3022 ;; This function is called by:
  3023 ;;		Interrupt level 1
  3024 ;; This function uses a non-reentrant model
  3025 ;;
  3026                           psect	text335
  3027                           	file	"C:\Users\Claudio\Desktop\TI\PIC\Projeto_TI.c"
  3028                           	line	28
  3029                           	global	__size_of_serial
  3030  015A                     	__size_of_serial	equ	__end_of_serial-_serial
  3031                           	
  3032  0200                     _serial:	
  3033                           	opt	stack 1
  3034                           ; Regs used in _serial: [wreg-fsr0h+status,2+status,0+pclath+cstack]
  3035                           psect	intentry,class=CODE,delta=2
  3036                           global __pintentry
  3037  0004                     __pintentry:
  3038                           global interrupt_function
  3039  0004                     interrupt_function:
  3040                           	global saved_w
  3041  007E                     	saved_w	set	btemp+0
  3042  0004  00FE               	movwf	saved_w
  3043  0005  0E03               	swapf	status,w
  3044  0006  00F3               	movwf	(??_serial+1)
  3045  0007  0804               	movf	fsr0,w
  3046  0008  00F4               	movwf	(??_serial+2)
  3047  0009  080A               	movf	pclath,w
  3048  000A  00F5               	movwf	(??_serial+3)
  3049  000B  1283               	bcf	status, 5	;RP0=0, select bank0
  3050  000C  1303               	bcf	status, 6	;RP1=0, select bank0
  3051  000D  087F               	movf	btemp+1,w
  3052  000E  00F6               	movwf	(??_serial+4)
  3053  000F  118A  2A00         	ljmp	_serial
  3054                           psect	text335
  3055                           	line	32
  3056                           	
  3057  0200                     i1l4475:	
  3058                           ;Projeto_TI.c: 29: char lixo;
  3059                           ;Projeto_TI.c: 32: if(INTF==1 && INTE==1)
  3060  0200  1C8B               	btfss	(89/8),(89)&7
  3061  0201  2A03               	goto	u291_21
  3062  0202  2A04               	goto	u291_20
  3063  0203                     u291_21:
  3064  0203  2A20               	goto	i1l1847
  3065  0204                     u291_20:
  3066                           	
  3067  0204                     i1l4477:	
  3068  0204  1E0B               	btfss	(92/8),(92)&7
  3069  0205  2A07               	goto	u292_21
  3070  0206  2A08               	goto	u292_20
  3071  0207                     u292_21:
  3072  0207  2A20               	goto	i1l1847
  3073  0208                     u292_20:
  3074                           	line	35
  3075                           	
  3076  0208                     i1l4479:	
  3077                           ;Projeto_TI.c: 33: {
  3078                           ;Projeto_TI.c: 35: if(ready==1 && C_on==1)
  3079  0208  087B               	movf	(_ready),w
  3080  0209  3A01               	xorlw	01h
  3081  020A  1D03               	skipz
  3082  020B  2A0D               	goto	u293_21
  3083  020C  2A0E               	goto	u293_20
  3084  020D                     u293_21:
  3085  020D  2A1D               	goto	i1l1848
  3086  020E                     u293_20:
  3087                           	
  3088  020E                     i1l4481:	
  3089  020E  0879               	movf	(_C_on),w
  3090  020F  3A01               	xorlw	01h
  3091  0210  1D03               	skipz
  3092  0211  2A13               	goto	u294_21
  3093  0212  2A14               	goto	u294_20
  3094  0213                     u294_21:
  3095  0213  2A1D               	goto	i1l1848
  3096  0214                     u294_20:
  3097                           	line	37
  3098                           	
  3099  0214                     i1l4483:	
  3100                           ;Projeto_TI.c: 36: {
  3101                           ;Projeto_TI.c: 37: sync(112,1);
  3102  0214  01F0               	clrf	(?_sync)
  3103  0215  1403               	bsf	status,0
  3104  0216  0DF0               	rlf	(?_sync),f
  3105  0217  3070               	movlw	(070h)
  3106  0218  118A  2620  118A   	fcall	_sync
  3107                           	line	38
  3108                           	
  3109  021B                     i1l4485:	
  3110                           ;Projeto_TI.c: 38: INTE=0;
  3111  021B  120B               	bcf	(92/8),(92)&7
  3112                           	line	39
  3113                           ;Projeto_TI.c: 39: }
  3114  021C  2A1F               	goto	i1l1849
  3115                           	line	41
  3116                           	
  3117  021D                     i1l1848:	
  3118                           	line	43
  3119                           ;Projeto_TI.c: 41: else
  3120                           ;Projeto_TI.c: 42: {
  3121                           ;Projeto_TI.c: 43: RA5=0;
  3122  021D  1285               	bcf	(45/8),(45)&7
  3123                           	line	44
  3124                           ;Projeto_TI.c: 44: RA4=1;
  3125  021E  1605               	bsf	(44/8),(44)&7
  3126                           	line	45
  3127                           	
  3128  021F                     i1l1849:	
  3129                           	line	46
  3130                           ;Projeto_TI.c: 45: }
  3131                           ;Projeto_TI.c: 46: INTF=0;
  3132  021F  108B               	bcf	(89/8),(89)&7
  3133                           	line	47
  3134                           	
  3135  0220                     i1l1847:	
  3136                           	line	50
  3137                           ;Projeto_TI.c: 47: }
  3138                           ;Projeto_TI.c: 50: if(RCIF==1 && RCIE==1)
  3139  0220  1283               	bcf	status, 5	;RP0=0, select bank0
  3140  0221  1303               	bcf	status, 6	;RP1=0, select bank0
  3141  0222  1E8C               	btfss	(101/8),(101)&7
  3142  0223  2A25               	goto	u295_21
  3143  0224  2A26               	goto	u295_20
  3144  0225                     u295_21:
  3145  0225  2B29               	goto	i1l1850
  3146  0226                     u295_20:
  3147                           	
  3148  0226                     i1l4487:	
  3149  0226  1683               	bsf	status, 5	;RP0=1, select bank1
  3150  0227  1303               	bcf	status, 6	;RP1=0, select bank1
  3151  0228  1E8C               	btfss	(1125/8)^080h,(1125)&7
  3152  0229  2A2B               	goto	u296_21
  3153  022A  2A2C               	goto	u296_20
  3154  022B                     u296_21:
  3155  022B  2B29               	goto	i1l1850
  3156  022C                     u296_20:
  3157                           	line	53
  3158                           	
  3159  022C                     i1l4489:	
  3160                           ;Projeto_TI.c: 51: {
  3161                           ;Projeto_TI.c: 53: if(FERR==1){
  3162  022C  1283               	bcf	status, 5	;RP0=0, select bank0
  3163  022D  1303               	bcf	status, 6	;RP1=0, select bank0
  3164  022E  1D18               	btfss	(194/8),(194)&7
  3165  022F  2A31               	goto	u297_21
  3166  0230  2A32               	goto	u297_20
  3167  0231                     u297_21:
  3168  0231  2A37               	goto	i1l1851
  3169  0232                     u297_20:
  3170                           	line	54
  3171                           	
  3172  0232                     i1l4491:	
  3173                           ;Projeto_TI.c: 54: lixo=RCREG;
  3174  0232  081A               	movf	(26),w	;volatile
  3175  0233  00F2               	movwf	(??_serial+0)+0
  3176  0234  0872               	movf	(??_serial+0)+0,w
  3177  0235  00F7               	movwf	(serial@lixo)
  3178                           	line	55
  3179                           ;Projeto_TI.c: 55: }
  3180  0236  2B26               	goto	i1l1852
  3181                           	line	57
  3182                           	
  3183  0237                     i1l1851:	
  3184                           ;Projeto_TI.c: 57: else if(OERR==1){
  3185  0237  1C98               	btfss	(193/8),(193)&7
  3186  0238  2A3A               	goto	u298_21
  3187  0239  2A3B               	goto	u298_20
  3188  023A                     u298_21:
  3189  023A  2A3E               	goto	i1l4495
  3190  023B                     u298_20:
  3191                           	line	58
  3192                           	
  3193  023B                     i1l4493:	
  3194                           ;Projeto_TI.c: 58: CREN=0;
  3195  023B  1218               	bcf	(196/8),(196)&7
  3196                           	line	59
  3197                           ;Projeto_TI.c: 59: CREN=1;
  3198  023C  1618               	bsf	(196/8),(196)&7
  3199                           	line	60
  3200                           ;Projeto_TI.c: 60: }
  3201  023D  2B26               	goto	i1l1852
  3202                           	line	63
  3203                           	
  3204  023E                     i1l1853:	
  3205                           	line	65
  3206                           	
  3207  023E                     i1l4495:	
  3208                           ;Projeto_TI.c: 63: else
  3209                           ;Projeto_TI.c: 64: {
  3210                           ;Projeto_TI.c: 65: dado_rx=RCREG;
  3211  023E  081A               	movf	(26),w	;volatile
  3212  023F  00F2               	movwf	(??_serial+0)+0
  3213  0240  0872               	movf	(??_serial+0)+0,w
  3214  0241  00FA               	movwf	(_dado_rx)
  3215                           	line	66
  3216                           ;Projeto_TI.c: 66: switch(dado_rx)
  3217  0242  2AF6               	goto	i1l4595
  3218                           	line	69
  3219                           ;Projeto_TI.c: 67: {
  3220                           ;Projeto_TI.c: 69: case 'r':
  3221                           	
  3222  0243                     i1l1856:	
  3223                           	line	70
  3224                           	
  3225  0243                     i1l4497:	
  3226                           ;Projeto_TI.c: 70: ready=1;
  3227  0243  01FB               	clrf	(_ready)
  3228  0244  1403               	bsf	status,0
  3229  0245  0DFB               	rlf	(_ready),f
  3230                           	line	71
  3231                           ;Projeto_TI.c: 71: C_on=1;
  3232  0246  01F9               	clrf	(_C_on)
  3233  0247  1403               	bsf	status,0
  3234  0248  0DF9               	rlf	(_C_on),f
  3235                           	line	72
  3236                           	
  3237  0249                     i1l4499:	
  3238                           ;Projeto_TI.c: 72: flagstat=0;
  3239  0249  01B2               	clrf	(_flagstat)
  3240                           	line	73
  3241                           	
  3242  024A                     i1l4501:	
  3243                           ;Projeto_TI.c: 73: RA5=1;
  3244  024A  1685               	bsf	(45/8),(45)&7
  3245                           	line	74
  3246                           	
  3247  024B                     i1l4503:	
  3248                           ;Projeto_TI.c: 74: RA4=0;
  3249  024B  1205               	bcf	(44/8),(44)&7
  3250                           	line	75
  3251                           ;Projeto_TI.c: 75: ini=1;
  3252  024C  01B3               	clrf	(_ini)
  3253  024D  1403               	bsf	status,0
  3254  024E  0DB3               	rlf	(_ini),f
  3255                           	line	76
  3256                           ;Projeto_TI.c: 76: wait=1;
  3257  024F  01B5               	clrf	(_wait)
  3258  0250  1403               	bsf	status,0
  3259  0251  0DB5               	rlf	(_wait),f
  3260                           	line	77
  3261                           ;Projeto_TI.c: 77: break;
  3262  0252  2B26               	goto	i1l1852
  3263                           	line	80
  3264                           ;Projeto_TI.c: 80: case 'z':
  3265                           	
  3266  0253                     i1l1858:	
  3267                           	line	81
  3268                           ;Projeto_TI.c: 81: ready=0;
  3269  0253  01FB               	clrf	(_ready)
  3270                           	line	82
  3271                           ;Projeto_TI.c: 82: C_on=0;
  3272  0254  01F9               	clrf	(_C_on)
  3273                           	line	83
  3274                           	
  3275  0255                     i1l4505:	
  3276                           ;Projeto_TI.c: 83: flagstat=1;
  3277  0255  01B2               	clrf	(_flagstat)
  3278  0256  1403               	bsf	status,0
  3279  0257  0DB2               	rlf	(_flagstat),f
  3280                           	line	84
  3281                           	
  3282  0258                     i1l4507:	
  3283                           ;Projeto_TI.c: 84: RA5=0;
  3284  0258  1285               	bcf	(45/8),(45)&7
  3285                           	line	85
  3286                           	
  3287  0259                     i1l4509:	
  3288                           ;Projeto_TI.c: 85: RA4=1;
  3289  0259  1605               	bsf	(44/8),(44)&7
  3290                           	line	86
  3291                           	
  3292  025A                     i1l4511:	
  3293                           ;Projeto_TI.c: 86: ini=0;
  3294  025A  01B3               	clrf	(_ini)
  3295                           	line	87
  3296                           ;Projeto_TI.c: 87: flagmin=1;
  3297  025B  01B1               	clrf	(_flagmin)
  3298  025C  1403               	bsf	status,0
  3299  025D  0DB1               	rlf	(_flagmin),f
  3300                           	line	88
  3301                           ;Projeto_TI.c: 88: break;
  3302  025E  2B26               	goto	i1l1852
  3303                           	line	91
  3304                           ;Projeto_TI.c: 91: case 't':
  3305                           	
  3306  025F                     i1l1859:	
  3307                           	line	92
  3308                           ;Projeto_TI.c: 92: flagstat=0;
  3309  025F  01B2               	clrf	(_flagstat)
  3310                           	line	93
  3311                           	
  3312  0260                     i1l4513:	
  3313                           ;Projeto_TI.c: 93: if(ready==0)
  3314  0260  08FB               	movf	(_ready),f
  3315  0261  1D03               	skipz
  3316  0262  2A64               	goto	u299_21
  3317  0263  2A65               	goto	u299_20
  3318  0264                     u299_21:
  3319  0264  2B26               	goto	i1l1852
  3320  0265                     u299_20:
  3321                           	line	95
  3322                           	
  3323  0265                     i1l4515:	
  3324                           ;Projeto_TI.c: 94: {
  3325                           ;Projeto_TI.c: 95: ready=1;
  3326  0265  01FB               	clrf	(_ready)
  3327  0266  1403               	bsf	status,0
  3328  0267  0DFB               	rlf	(_ready),f
  3329  0268  2B26               	goto	i1l1852
  3330                           	line	96
  3331                           	
  3332  0269                     i1l1860:	
  3333                           	line	97
  3334                           ;Projeto_TI.c: 96: }
  3335                           ;Projeto_TI.c: 97: break;
  3336  0269  2B26               	goto	i1l1852
  3337                           	line	102
  3338                           ;Projeto_TI.c: 102: case 'h':
  3339                           	
  3340  026A                     i1l1861:	
  3341                           	line	103
  3342                           	
  3343  026A                     i1l4517:	
  3344                           ;Projeto_TI.c: 103: if(ready==1)
  3345  026A  087B               	movf	(_ready),w
  3346  026B  3A01               	xorlw	01h
  3347  026C  1D03               	skipz
  3348  026D  2A6F               	goto	u300_21
  3349  026E  2A70               	goto	u300_20
  3350  026F                     u300_21:
  3351  026F  2A76               	goto	i1l4521
  3352  0270                     u300_20:
  3353                           	line	105
  3354                           	
  3355  0270                     i1l4519:	
  3356                           ;Projeto_TI.c: 104: {
  3357                           ;Projeto_TI.c: 105: sync('h',0);
  3358  0270  01F0               	clrf	(?_sync)
  3359  0271  3068               	movlw	(068h)
  3360  0272  118A  2620  118A   	fcall	_sync
  3361                           	line	106
  3362                           ;Projeto_TI.c: 106: }
  3363  0275  2B26               	goto	i1l1852
  3364                           	line	107
  3365                           	
  3366  0276                     i1l1862:	
  3367                           	
  3368  0276                     i1l4521:	
  3369                           ;Projeto_TI.c: 107: else if(ready==0)
  3370  0276  08FB               	movf	(_ready),f
  3371  0277  1D03               	skipz
  3372  0278  2A7A               	goto	u301_21
  3373  0279  2A7B               	goto	u301_20
  3374  027A                     u301_21:
  3375  027A  2B26               	goto	i1l1852
  3376  027B                     u301_20:
  3377  027B  2A7D               	goto	i1l4525
  3378                           	line	109
  3379                           	
  3380  027C                     i1l4523:	
  3381  027C  2A7D               	goto	i1l4525
  3382                           	
  3383  027D                     i1l1865:	
  3384                           	line	110
  3385                           	
  3386  027D                     i1l4525:	
  3387                           ;Projeto_TI.c: 110: sync('h',0);
  3388  027D  01F0               	clrf	(?_sync)
  3389  027E  3068               	movlw	(068h)
  3390  027F  118A  2620  118A   	fcall	_sync
  3391  0282  2B26               	goto	i1l1852
  3392                           	line	111
  3393                           	
  3394  0283                     i1l1864:	
  3395  0283  2B26               	goto	i1l1852
  3396                           	line	112
  3397                           	
  3398  0284                     i1l1863:	
  3399                           ;Projeto_TI.c: 111: }
  3400                           ;Projeto_TI.c: 112: break;
  3401  0284  2B26               	goto	i1l1852
  3402                           	line	116
  3403                           ;Projeto_TI.c: 116: case 'A': minutos=dado_rx-65; flagmin=1; dado_rx=0; break;
  3404                           	
  3405  0285                     i1l1866:	
  3406                           	
  3407  0285                     i1l4527:	
  3408  0285  087A               	movf	(_dado_rx),w
  3409  0286  3EBF               	addlw	0BFh
  3410  0287  00F2               	movwf	(??_serial+0)+0
  3411  0288  0872               	movf	(??_serial+0)+0,w
  3412  0289  1283               	bcf	status, 5	;RP0=0, select bank0
  3413  028A  1303               	bcf	status, 6	;RP1=0, select bank0
  3414  028B  00B4               	movwf	(_minutos)
  3415                           	
  3416  028C                     i1l4529:	
  3417  028C  01B1               	clrf	(_flagmin)
  3418  028D  1403               	bsf	status,0
  3419  028E  0DB1               	rlf	(_flagmin),f
  3420                           	
  3421  028F                     i1l4531:	
  3422  028F  01FA               	clrf	(_dado_rx)
  3423  0290  2B26               	goto	i1l1852
  3424                           	line	117
  3425                           ;Projeto_TI.c: 117: case 'B': minutos=dado_rx-65; flagmin=1; dado_rx=0; break;
  3426                           	
  3427  0291                     i1l1867:	
  3428                           	
  3429  0291                     i1l4533:	
  3430  0291  087A               	movf	(_dado_rx),w
  3431  0292  3EBF               	addlw	0BFh
  3432  0293  00F2               	movwf	(??_serial+0)+0
  3433  0294  0872               	movf	(??_serial+0)+0,w
  3434  0295  00B4               	movwf	(_minutos)
  3435                           	
  3436  0296                     i1l4535:	
  3437  0296  01B1               	clrf	(_flagmin)
  3438  0297  1403               	bsf	status,0
  3439  0298  0DB1               	rlf	(_flagmin),f
  3440                           	
  3441  0299                     i1l4537:	
  3442  0299  01FA               	clrf	(_dado_rx)
  3443  029A  2B26               	goto	i1l1852
  3444                           	line	118
  3445                           ;Projeto_TI.c: 118: case 'C': minutos=dado_rx-65; flagmin=1; dado_rx=0; break;
  3446                           	
  3447  029B                     i1l1868:	
  3448                           	
  3449  029B                     i1l4539:	
  3450  029B  087A               	movf	(_dado_rx),w
  3451  029C  3EBF               	addlw	0BFh
  3452  029D  00F2               	movwf	(??_serial+0)+0
  3453  029E  0872               	movf	(??_serial+0)+0,w
  3454  029F  00B4               	movwf	(_minutos)
  3455                           	
  3456  02A0                     i1l4541:	
  3457  02A0  01B1               	clrf	(_flagmin)
  3458  02A1  1403               	bsf	status,0
  3459  02A2  0DB1               	rlf	(_flagmin),f
  3460                           	
  3461  02A3                     i1l4543:	
  3462  02A3  01FA               	clrf	(_dado_rx)
  3463  02A4  2B26               	goto	i1l1852
  3464                           	line	119
  3465                           ;Projeto_TI.c: 119: case 'D': minutos=dado_rx-65; flagmin=1; dado_rx=0; break;
  3466                           	
  3467  02A5                     i1l1869:	
  3468                           	
  3469  02A5                     i1l4545:	
  3470  02A5  087A               	movf	(_dado_rx),w
  3471  02A6  3EBF               	addlw	0BFh
  3472  02A7  00F2               	movwf	(??_serial+0)+0
  3473  02A8  0872               	movf	(??_serial+0)+0,w
  3474  02A9  00B4               	movwf	(_minutos)
  3475                           	
  3476  02AA                     i1l4547:	
  3477  02AA  01B1               	clrf	(_flagmin)
  3478  02AB  1403               	bsf	status,0
  3479  02AC  0DB1               	rlf	(_flagmin),f
  3480                           	
  3481  02AD                     i1l4549:	
  3482  02AD  01FA               	clrf	(_dado_rx)
  3483  02AE  2B26               	goto	i1l1852
  3484                           	line	120
  3485                           ;Projeto_TI.c: 120: case 'E': minutos=dado_rx-65; flagmin=1; dado_rx=0; break;
  3486                           	
  3487  02AF                     i1l1870:	
  3488                           	
  3489  02AF                     i1l4551:	
  3490  02AF  087A               	movf	(_dado_rx),w
  3491  02B0  3EBF               	addlw	0BFh
  3492  02B1  00F2               	movwf	(??_serial+0)+0
  3493  02B2  0872               	movf	(??_serial+0)+0,w
  3494  02B3  00B4               	movwf	(_minutos)
  3495                           	
  3496  02B4                     i1l4553:	
  3497  02B4  01B1               	clrf	(_flagmin)
  3498  02B5  1403               	bsf	status,0
  3499  02B6  0DB1               	rlf	(_flagmin),f
  3500                           	
  3501  02B7                     i1l4555:	
  3502  02B7  01FA               	clrf	(_dado_rx)
  3503  02B8  2B26               	goto	i1l1852
  3504                           	line	121
  3505                           ;Projeto_TI.c: 121: case 'F': minutos=dado_rx-65; flagmin=1; dado_rx=0; break;
  3506                           	
  3507  02B9                     i1l1871:	
  3508                           	
  3509  02B9                     i1l4557:	
  3510  02B9  087A               	movf	(_dado_rx),w
  3511  02BA  3EBF               	addlw	0BFh
  3512  02BB  00F2               	movwf	(??_serial+0)+0
  3513  02BC  0872               	movf	(??_serial+0)+0,w
  3514  02BD  00B4               	movwf	(_minutos)
  3515                           	
  3516  02BE                     i1l4559:	
  3517  02BE  01B1               	clrf	(_flagmin)
  3518  02BF  1403               	bsf	status,0
  3519  02C0  0DB1               	rlf	(_flagmin),f
  3520                           	
  3521  02C1                     i1l4561:	
  3522  02C1  01FA               	clrf	(_dado_rx)
  3523  02C2  2B26               	goto	i1l1852
  3524                           	line	122
  3525                           ;Projeto_TI.c: 122: case 'G': minutos=dado_rx-65; flagmin=1; dado_rx=0; break;
  3526                           	
  3527  02C3                     i1l1872:	
  3528                           	
  3529  02C3                     i1l4563:	
  3530  02C3  087A               	movf	(_dado_rx),w
  3531  02C4  3EBF               	addlw	0BFh
  3532  02C5  00F2               	movwf	(??_serial+0)+0
  3533  02C6  0872               	movf	(??_serial+0)+0,w
  3534  02C7  00B4               	movwf	(_minutos)
  3535                           	
  3536  02C8                     i1l4565:	
  3537  02C8  01B1               	clrf	(_flagmin)
  3538  02C9  1403               	bsf	status,0
  3539  02CA  0DB1               	rlf	(_flagmin),f
  3540                           	
  3541  02CB                     i1l4567:	
  3542  02CB  01FA               	clrf	(_dado_rx)
  3543  02CC  2B26               	goto	i1l1852
  3544                           	line	123
  3545                           ;Projeto_TI.c: 123: case 'H': minutos=dado_rx-65; flagmin=1; dado_rx=0; break;
  3546                           	
  3547  02CD                     i1l1873:	
  3548                           	
  3549  02CD                     i1l4569:	
  3550  02CD  087A               	movf	(_dado_rx),w
  3551  02CE  3EBF               	addlw	0BFh
  3552  02CF  00F2               	movwf	(??_serial+0)+0
  3553  02D0  0872               	movf	(??_serial+0)+0,w
  3554  02D1  00B4               	movwf	(_minutos)
  3555                           	
  3556  02D2                     i1l4571:	
  3557  02D2  01B1               	clrf	(_flagmin)
  3558  02D3  1403               	bsf	status,0
  3559  02D4  0DB1               	rlf	(_flagmin),f
  3560                           	
  3561  02D5                     i1l4573:	
  3562  02D5  01FA               	clrf	(_dado_rx)
  3563  02D6  2B26               	goto	i1l1852
  3564                           	line	124
  3565                           ;Projeto_TI.c: 124: case 'I': minutos=dado_rx-65; flagmin=1; dado_rx=0; break;
  3566                           	
  3567  02D7                     i1l1874:	
  3568                           	
  3569  02D7                     i1l4575:	
  3570  02D7  087A               	movf	(_dado_rx),w
  3571  02D8  3EBF               	addlw	0BFh
  3572  02D9  00F2               	movwf	(??_serial+0)+0
  3573  02DA  0872               	movf	(??_serial+0)+0,w
  3574  02DB  00B4               	movwf	(_minutos)
  3575                           	
  3576  02DC                     i1l4577:	
  3577  02DC  01B1               	clrf	(_flagmin)
  3578  02DD  1403               	bsf	status,0
  3579  02DE  0DB1               	rlf	(_flagmin),f
  3580                           	
  3581  02DF                     i1l4579:	
  3582  02DF  01FA               	clrf	(_dado_rx)
  3583  02E0  2B26               	goto	i1l1852
  3584                           	line	125
  3585                           ;Projeto_TI.c: 125: case 'J': minutos=dado_rx-65; flagmin=1; dado_rx=0; break;
  3586                           	
  3587  02E1                     i1l1875:	
  3588                           	
  3589  02E1                     i1l4581:	
  3590  02E1  087A               	movf	(_dado_rx),w
  3591  02E2  3EBF               	addlw	0BFh
  3592  02E3  00F2               	movwf	(??_serial+0)+0
  3593  02E4  0872               	movf	(??_serial+0)+0,w
  3594  02E5  00B4               	movwf	(_minutos)
  3595                           	
  3596  02E6                     i1l4583:	
  3597  02E6  01B1               	clrf	(_flagmin)
  3598  02E7  1403               	bsf	status,0
  3599  02E8  0DB1               	rlf	(_flagmin),f
  3600                           	
  3601  02E9                     i1l4585:	
  3602  02E9  01FA               	clrf	(_dado_rx)
  3603  02EA  2B26               	goto	i1l1852
  3604                           	line	126
  3605                           ;Projeto_TI.c: 126: case 'K': minutos=dado_rx-65; flagmin=1; dado_rx=0; break;
  3606                           	
  3607  02EB                     i1l1876:	
  3608                           	
  3609  02EB                     i1l4587:	
  3610  02EB  087A               	movf	(_dado_rx),w
  3611  02EC  3EBF               	addlw	0BFh
  3612  02ED  00F2               	movwf	(??_serial+0)+0
  3613  02EE  0872               	movf	(??_serial+0)+0,w
  3614  02EF  00B4               	movwf	(_minutos)
  3615                           	
  3616  02F0                     i1l4589:	
  3617  02F0  01B1               	clrf	(_flagmin)
  3618  02F1  1403               	bsf	status,0
  3619  02F2  0DB1               	rlf	(_flagmin),f
  3620                           	
  3621  02F3                     i1l4591:	
  3622  02F3  01FA               	clrf	(_dado_rx)
  3623  02F4  2B26               	goto	i1l1852
  3624                           	line	127
  3625                           	
  3626  02F5                     i1l4593:	
  3627                           ;Projeto_TI.c: 127: }
  3628  02F5  2B26               	goto	i1l1852
  3629                           	line	66
  3630                           	
  3631  02F6                     i1l1855:	
  3632                           	
  3633  02F6                     i1l4595:	
  3634  02F6  087A               	movf	(_dado_rx),w
  3635                           	; Switch size 1, requested type "space"
  3636                           ; Number of cases is 15, Range of values is 65 to 122
  3637                           ; switch strategies available:
  3638                           ; Name         Instructions Cycles
  3639                           ; simple_byte           46    24 (average)
  3640                           ; direct_byte          126    10 (fixed)
  3641                           ; jumptable            263     9 (fixed)
  3642                           ;	Chosen strategy is simple_byte
  3643                           
  3644                           	opt asmopt_off
  3645  02F7  3A41               	xorlw	65^0	; case 65
  3646  02F8  1903               	skipnz
  3647  02F9  2A85               	goto	i1l4527
  3648  02FA  3A03               	xorlw	66^65	; case 66
  3649  02FB  1903               	skipnz
  3650  02FC  2A91               	goto	i1l4533
  3651  02FD  3A01               	xorlw	67^66	; case 67
  3652  02FE  1903               	skipnz
  3653  02FF  2A9B               	goto	i1l4539
  3654  0300  3A07               	xorlw	68^67	; case 68
  3655  0301  1903               	skipnz
  3656  0302  2AA5               	goto	i1l4545
  3657  0303  3A01               	xorlw	69^68	; case 69
  3658  0304  1903               	skipnz
  3659  0305  2AAF               	goto	i1l4551
  3660  0306  3A03               	xorlw	70^69	; case 70
  3661  0307  1903               	skipnz
  3662  0308  2AB9               	goto	i1l4557
  3663  0309  3A01               	xorlw	71^70	; case 71
  3664  030A  1903               	skipnz
  3665  030B  2AC3               	goto	i1l4563
  3666  030C  3A0F               	xorlw	72^71	; case 72
  3667  030D  1903               	skipnz
  3668  030E  2ACD               	goto	i1l4569
  3669  030F  3A01               	xorlw	73^72	; case 73
  3670  0310  1903               	skipnz
  3671  0311  2AD7               	goto	i1l4575
  3672  0312  3A03               	xorlw	74^73	; case 74
  3673  0313  1903               	skipnz
  3674  0314  2AE1               	goto	i1l4581
  3675  0315  3A01               	xorlw	75^74	; case 75
  3676  0316  1903               	skipnz
  3677  0317  2AEB               	goto	i1l4587
  3678  0318  3A23               	xorlw	104^75	; case 104
  3679  0319  1903               	skipnz
  3680  031A  2A6A               	goto	i1l4517
  3681  031B  3A1A               	xorlw	114^104	; case 114
  3682  031C  1903               	skipnz
  3683  031D  2A43               	goto	i1l4497
  3684  031E  3A06               	xorlw	116^114	; case 116
  3685  031F  1903               	skipnz
  3686  0320  2A5F               	goto	i1l1859
  3687  0321  3A0E               	xorlw	122^116	; case 122
  3688  0322  1903               	skipnz
  3689  0323  2A53               	goto	i1l1858
  3690  0324  2B26               	goto	i1l1852
  3691                           	opt asmopt_on
  3692                           
  3693                           	line	127
  3694                           	
  3695  0325                     i1l1857:	
  3696  0325  2B26               	goto	i1l1852
  3697                           	line	128
  3698                           	
  3699  0326                     i1l1854:	
  3700                           	
  3701  0326                     i1l1852:	
  3702                           	line	129
  3703                           ;Projeto_TI.c: 128: }
  3704                           ;Projeto_TI.c: 129: RCIF=0;
  3705  0326  1283               	bcf	status, 5	;RP0=0, select bank0
  3706  0327  1303               	bcf	status, 6	;RP1=0, select bank0
  3707  0328  128C               	bcf	(101/8),(101)&7
  3708                           	line	130
  3709                           	
  3710  0329                     i1l1850:	
  3711                           	line	133
  3712                           ;Projeto_TI.c: 130: }
  3713                           ;Projeto_TI.c: 133: if(TMR1IF ==1 && TMR1IE ==1)
  3714  0329  1283               	bcf	status, 5	;RP0=0, select bank0
  3715  032A  1C0C               	btfss	(96/8),(96)&7
  3716  032B  2B2D               	goto	u302_21
  3717  032C  2B2E               	goto	u302_20
  3718  032D                     u302_21:
  3719  032D  2B4E               	goto	i1l1879
  3720  032E                     u302_20:
  3721                           	
  3722  032E                     i1l4597:	
  3723  032E  1683               	bsf	status, 5	;RP0=1, select bank1
  3724  032F  1303               	bcf	status, 6	;RP1=0, select bank1
  3725  0330  1C0C               	btfss	(1120/8)^080h,(1120)&7
  3726  0331  2B33               	goto	u303_21
  3727  0332  2B34               	goto	u303_20
  3728  0333                     u303_21:
  3729  0333  2B4E               	goto	i1l1879
  3730  0334                     u303_20:
  3731                           	line	136
  3732                           	
  3733  0334                     i1l4599:	
  3734                           ;Projeto_TI.c: 134: {
  3735                           ;Projeto_TI.c: 136: if(seg)
  3736  0334  1D78               	btfss	(_seg/8),(_seg)&7
  3737  0335  2B37               	goto	u304_21
  3738  0336  2B38               	goto	u304_20
  3739  0337                     u304_21:
  3740  0337  2B43               	goto	i1l4605
  3741  0338                     u304_20:
  3742                           	line	138
  3743                           	
  3744  0338                     i1l4601:	
  3745                           ;Projeto_TI.c: 137: {
  3746                           ;Projeto_TI.c: 138: sync('t',0);
  3747  0338  01F0               	clrf	(?_sync)
  3748  0339  3074               	movlw	(074h)
  3749  033A  118A  2620  118A   	fcall	_sync
  3750                           	line	139
  3751                           	
  3752  033D                     i1l4603:	
  3753                           ;Projeto_TI.c: 139: flagstat=1;
  3754  033D  1283               	bcf	status, 5	;RP0=0, select bank0
  3755  033E  1303               	bcf	status, 6	;RP1=0, select bank0
  3756  033F  01B2               	clrf	(_flagstat)
  3757  0340  1403               	bsf	status,0
  3758  0341  0DB2               	rlf	(_flagstat),f
  3759  0342  2B43               	goto	i1l4605
  3760                           	line	140
  3761                           	
  3762  0343                     i1l1878:	
  3763                           	line	141
  3764                           	
  3765  0343                     i1l4605:	
  3766                           ;Projeto_TI.c: 140: }
  3767                           ;Projeto_TI.c: 141: seg=!seg;
  3768  0343  3004               	movlw	1<<((_seg)&7)
  3769  0344  06F8               	xorwf	((_seg)/8),f
  3770                           	line	142
  3771                           	
  3772  0345                     i1l4607:	
  3773                           ;Projeto_TI.c: 142: TMR1+=3036;
  3774  0345  30DC               	movlw	low(0BDCh)
  3775  0346  1283               	bcf	status, 5	;RP0=0, select bank0
  3776  0347  078E               	addwf	(14),f	;volatile
  3777  0348  1803               	skipnc
  3778  0349  0A8F               	incf	(14+1),f	;volatile
  3779  034A  300B               	movlw	high(0BDCh)
  3780  034B  078F               	addwf	(14+1),f	;volatile
  3781                           	line	143
  3782                           	
  3783  034C                     i1l4609:	
  3784                           ;Projeto_TI.c: 143: TMR1IF=0;
  3785  034C  100C               	bcf	(96/8),(96)&7
  3786  034D  2B4E               	goto	i1l1879
  3787                           	line	144
  3788                           	
  3789  034E                     i1l1877:	
  3790                           	line	145
  3791                           	
  3792  034E                     i1l1879:	
  3793  034E  0876               	movf	(??_serial+4),w
  3794  034F  1283               	bcf	status, 5	;RP0=0, select bank0
  3795  0350  00FF               	movwf	btemp+1
  3796  0351  0875               	movf	(??_serial+3),w
  3797  0352  008A               	movwf	pclath
  3798  0353  0874               	movf	(??_serial+2),w
  3799  0354  0084               	movwf	fsr0
  3800  0355  0E73               	swapf	(??_serial+1)^0FFFFFF80h,w
  3801  0356  0083               	movwf	status
  3802  0357  0EFE               	swapf	saved_w,f
  3803  0358  0E7E               	swapf	saved_w,w
  3804  0359  0009               	retfie
  3805                           	opt stack 0
  3806                           GLOBAL	__end_of_serial
  3807  035A                     	__end_of_serial:
  3808 ;; =============== function _serial ends ============
  3809                           
  3810                           	signat	_serial,88
  3811                           	global	_sync
  3812                           psect	text336,local,class=CODE,delta=2
  3813                           global __ptext336
  3814  0620                     __ptext336:
  3815                           
  3816 ;; *************** function _sync *****************
  3817 ;; Defined at:
  3818 ;;		line 21 in file "C:\Users\Claudio\Desktop\TI\PIC\Projeto_TI.c"
  3819 ;; Parameters:    Size  Location     Type
  3820 ;;  mode            1    wreg     unsigned char 
  3821 ;;  data            1    0[COMMON] unsigned char 
  3822 ;; Auto vars:     Size  Location     Type
  3823 ;;  mode            1    1[COMMON] unsigned char 
  3824 ;; Return value:  Size  Location     Type
  3825 ;;		None               void
  3826 ;; Registers used:
  3827 ;;		wreg
  3828 ;; Tracked objects:
  3829 ;;		On entry : 0/0
  3830 ;;		On exit  : 0/0
  3831 ;;		Unchanged: 0/0
  3832 ;; Data sizes:     COMMON   BANK0   BANK1   BANK2
  3833 ;;      Params:         1       0       0       0
  3834 ;;      Locals:         1       0       0       0
  3835 ;;      Temps:          0       0       0       0
  3836 ;;      Totals:         2       0       0       0
  3837 ;;Total ram usage:        2 bytes
  3838 ;; Hardware stack levels used:    1
  3839 ;; This function calls:
  3840 ;;		Nothing
  3841 ;; This function is called by:
  3842 ;;		_serial
  3843 ;; This function uses a non-reentrant model
  3844 ;;
  3845                           psect	text336
  3846                           	file	"C:\Users\Claudio\Desktop\TI\PIC\Projeto_TI.c"
  3847                           	line	21
  3848                           	global	__size_of_sync
  3849  0026                     	__size_of_sync	equ	__end_of_sync-_sync
  3850                           	
  3851  0620                     _sync:	
  3852                           	opt	stack 1
  3853                           ; Regs used in _sync: [wreg]
  3854                           ;sync@mode stored from wreg
  3855  0620  00F1               	movwf	(sync@mode)
  3856                           	line	22
  3857                           	
  3858  0621                     i1l4469:	
  3859                           ;Projeto_TI.c: 22: TXREG='f'; while(!TRMT);
  3860  0621  3066               	movlw	(066h)
  3861  0622  1283               	bcf	status, 5	;RP0=0, select bank0
  3862  0623  1303               	bcf	status, 6	;RP1=0, select bank0
  3863  0624  0099               	movwf	(25)	;volatile
  3864  0625  2E26               	goto	i1l1835
  3865                           	
  3866  0626                     i1l1836:	
  3867                           	
  3868  0626                     i1l1835:	
  3869  0626  1683               	bsf	status, 5	;RP0=1, select bank1
  3870  0627  1303               	bcf	status, 6	;RP1=0, select bank1
  3871  0628  1C98               	btfss	(1217/8)^080h,(1217)&7
  3872  0629  2E2B               	goto	u288_21
  3873  062A  2E2C               	goto	u288_20
  3874  062B                     u288_21:
  3875  062B  2E26               	goto	i1l1835
  3876  062C                     u288_20:
  3877  062C  2E2D               	goto	i1l4471
  3878                           	
  3879  062D                     i1l1837:	
  3880                           	line	23
  3881                           	
  3882  062D                     i1l4471:	
  3883                           ;Projeto_TI.c: 23: TXREG=mode; while(!TRMT);
  3884  062D  0871               	movf	(sync@mode),w
  3885  062E  1283               	bcf	status, 5	;RP0=0, select bank0
  3886  062F  1303               	bcf	status, 6	;RP1=0, select bank0
  3887  0630  0099               	movwf	(25)	;volatile
  3888  0631  2E32               	goto	i1l1838
  3889                           	
  3890  0632                     i1l1839:	
  3891                           	
  3892  0632                     i1l1838:	
  3893  0632  1683               	bsf	status, 5	;RP0=1, select bank1
  3894  0633  1303               	bcf	status, 6	;RP1=0, select bank1
  3895  0634  1C98               	btfss	(1217/8)^080h,(1217)&7
  3896  0635  2E37               	goto	u289_21
  3897  0636  2E38               	goto	u289_20
  3898  0637                     u289_21:
  3899  0637  2E32               	goto	i1l1838
  3900  0638                     u289_20:
  3901  0638  2E39               	goto	i1l4473
  3902                           	
  3903  0639                     i1l1840:	
  3904                           	line	24
  3905                           	
  3906  0639                     i1l4473:	
  3907                           ;Projeto_TI.c: 24: TXREG=data; while(!TRMT);
  3908  0639  0870               	movf	(sync@data),w
  3909  063A  1283               	bcf	status, 5	;RP0=0, select bank0
  3910  063B  1303               	bcf	status, 6	;RP1=0, select bank0
  3911  063C  0099               	movwf	(25)	;volatile
  3912  063D  2E3E               	goto	i1l1841
  3913                           	
  3914  063E                     i1l1842:	
  3915                           	
  3916  063E                     i1l1841:	
  3917  063E  1683               	bsf	status, 5	;RP0=1, select bank1
  3918  063F  1303               	bcf	status, 6	;RP1=0, select bank1
  3919  0640  1C98               	btfss	(1217/8)^080h,(1217)&7
  3920  0641  2E43               	goto	u290_21
  3921  0642  2E44               	goto	u290_20
  3922  0643                     u290_21:
  3923  0643  2E3E               	goto	i1l1841
  3924  0644                     u290_20:
  3925  0644  2E45               	goto	i1l1844
  3926                           	
  3927  0645                     i1l1843:	
  3928                           	line	25
  3929                           	
  3930  0645                     i1l1844:	
  3931  0645  0008               	return
  3932                           	opt stack 0
  3933                           GLOBAL	__end_of_sync
  3934  0646                     	__end_of_sync:
  3935 ;; =============== function _sync ends ============
  3936                           
  3937                           	signat	_sync,8312
  3938                           psect	text337,local,class=CODE,delta=2
  3939                           global __ptext337
  3940  0000                     __ptext337:
  3941                           	global	btemp
  3942  007E                     	btemp set 07Eh
  3943                           
  3944                           	DABS	1,126,2	;btemp
  3945                           	global	wtemp0
  3946  007E                     	wtemp0 set btemp


HI-TECH Software PICC Macro Assembler V9.83 build 10920 
Symbol Table                                                                                   Thu Dec 04 14:14:29 2014

                   pc 0002                    _RD 0C60                    _WR 0C61                    fsr 0004  
                 l910 0570                   l903 0577                   l911 058A                   l904 0543  
                 l920 0690                   l905 058A                   l914 0688                   l906 0547  
                 l907 054C                   l908 0552                   l909 0566                   l917 05CF  
                 l891 05F8                   l894 066F                   _GIE 005F                   _RA0 0028  
                 _RA1 0029                   _RA2 002A                   _RA4 002C                   _RA5 002D  
                 _RX9 00C6                   _TX9 04C6                   _ini 0033                   _seg 03C2  
                 fsr0 0004                   indf 0000           lcd_goto@pos 0023                  l1900 01A7  
                l1901 01FC                  l1910 01FE                  l1902 01C3                  l1903 01E2  
                l1920 061F                  l1904 01E1                  l1905 01FB                  l1906 01FA  
                l1907 01F9                  l1908 01FD                  l1917 0605                  l1909 01FE  
                l1918 0600                  l1919 061F                  l1882 065C                  l1890 00C5  
                l4611 0646                  l1891 00E2                  l1892 00FF                  l4621 0654  
                l4613 064B                  l4701 05BE                  l1893 011C                  l1885 003C  
                l1894 0139                  l1886 0052                  l4631 065B                  l4623 0655  
                l4615 064C                  l4711 05CB                  l4703 05BF                  l1895 0156  
                l1887 006E                  l1896 0173                  l1888 008B                  l4625 0656  
                l4617 064E                  l4641 05EC                  l4633 05D3                  l4705 05C0  
                l4713 068C                  l1897 0190                  l1889 00A8                  l4801 00A8  
                l4721 0013                  l1898 0197                  l4627 0657                  l4619 0651  
                l4643 05ED                  l4635 05D8                  l4651 065D                  l4707 05C4  
                l4715 05F9                  l1899 01A5                  l4803 00AE                  l4811 00C5  
                l4731 001E                  l4723 0017                  l4629 0658                  l4645 05F1  
                l4637 05DE                  l4653 0660                  l4661 0542                  l4709 05C8  
                l4717 0600                  l4901 01DC                  l4813 00CB                  l4821 00E2  
                l4805 00B4                  l4741 0025                  l4733 001F                  l4725 001B  
                l4647 05F6                  l4639 05EB                  l4655 0664                  l4671 0557  
                l4663 0543                  l4719 0605                  l4911 01EE                  l4903 01DF  
                l4823 00E8                  l4831 00FF                  l4815 00D1                  l4807 00BA  
                l4751 002D                  l4743 0029                  l4735 0020                  l4727 001C  
                l4649 05F7                  l4657 0682                  l4673 055E                  l4665 0547  
                l4681 0577                  l4913 01EF                  l4905 01E2                  l4833 0105  
                l4841 011C                  l4825 00EE                  l4817 00D7                  l4809 00C1  
                l4761 0038                  l4753 002E                  l4745 002A                  l4737 0021  
                l4729 001D                  l4659 0683                  l4675 0567                  l4667 054D  
                l4691 05A0                  l4683 058B                  l4915 01F0                  l4907 01E7  
                l4843 0122                  l4851 0139                  l4835 010B                  l4827 00F4  
                l4819 00DE                  l4771 0052                  l4763 003C                  l4755 0031  
                l4747 002B                  l4739 0022                  l4677 0571                  l4669 0553  
                l4693 05AA                  l4685 0591                  l4917 01F4                  l4909 01EB  
                l4853 013F                  l4861 0156                  l4845 0128                  l4837 0111  
                l4829 00FB                  l4773 0057                  l4781 006E                  l4765 0041  
                l4757 0034                  l4749 002C                  l4679 0576                  l4695 05AD  
                l4687 0592                  l4919 01F7                  l4863 015C                  l4871 0173  
                l4855 0145                  l4847 012E                  l4839 0118                  l4783 0074  
                l4791 008B                  l4775 005D                  l4767 0047                  l4759 0037  
                l4697 05B2                  l4689 059F                  l4873 0179                  l4881 0190  
                l4865 0162                  l4857 014B                  l4849 0135                  l4793 0091  
                l4785 007A                  l4777 0063                  l4769 004E                  l4699 05B5  
                l4891 01B3                  l4883 0196                  l4875 017F                  l4867 0168  
                l4859 0152                  l4795 0097                  l4787 0080                  l4779 006A  
                l4893 01C0                  l4885 019B                  l4877 0185                  l4869 016F  
                l4797 009D                  l4789 0087                  l4895 01C7                  l4887 01A7  
                l4879 018C                  l4799 00A4                  l4897 01D5                  l4889 01AF  
                l4899 01D9                  STR_1 053D                  STR_2 0523                  STR_3 0400  
                STR_4 0506                  STR_5 04E9                  STR_6 04CC                  STR_7 04AF  
                STR_8 0492                  STR_9 0475                  _BRGH 04C2                  _CREN 00C4  
                _FERR 00C2                  u3100 005D                  u3101 005C                  u3110 0063  
                u3111 0062                  u3200 00BA                  u3120 0074                  u3201 00B9  
                u3121 0073                  u3210 00CB                  u3130 007A                  u3211 00CA  
                u3131 0079                  u3060 061E                  u3300 0122                  u3220 00D1  
                u3140 0080                  u3061 061D                  u3301 0121                  u3221 00D0  
                u3141 007F                  u3310 0128                  u3230 00D7                  u3150 0091  
                u3070 0041                  u3055 05E1                  u3311 0127                  u3231 00D6  
                u3151 0090                  u3071 0040                  u3400 017F                  u3320 012E  
                u3240 00E8                  u3160 0097                  u3080 0047                  u3401 017E  
                u3321 012D                  u3241 00E7                  u3161 0096                  u3081 0046  
                u3410 0185                  u3330 013F                  u3250 00EE                  u3170 009D  
                u3090 0057                  u3411 0184                  u3331 013E                  u3251 00ED  
                u3171 009C                  u3091 0056                  u3500 01EB                  u3420 0196  
                u3340 0145                  u3260 00F4                  u3180 00AE                  u3501 01EA  
                u3421 0195                  u3341 0144                  u3261 00F3                  u3181 00AD  
                u3510 01F4                  u3430 019B                  u3350 014B                  u3270 0105  
                u3190 00B4                  u3511 01F3                  u3431 019A                  u3351 014A  
                u3271 0104                  u3191 00B3                  u3440 01AF                  u3360 015C  
                u3280 010B                  u3441 01AE                  u3361 015B                  u3281 010A  
                u3450 01B3                  u3370 0162                  u3290 0111                  u3371 0161  
                u3291 0110                  u3460 01C7                  u3380 0168                  u3381 0167  
                u3470 01D5                  u3390 0179                  u3607 05D5                  u3527 019F  
                u3391 0178                  u3480 01D9                  u3481 01D8                  u3537 01B9  
                u3490 01E7                  u3491 01E6                  u3547 01CB                  _PEIE 005E  
                u3557 0597                  _INTE 005C                  _INTF 0059                  u3567 05A5  
                u3577 05B0                  u3587 05B8                  _RCIE 0465                  _RCIF 0065  
                u3597 066A                  _OERR 00C1                  _TMR1 000E                  _SPEN 00C7  
                _TRMT 04C1                  _TXIE 0464                  _WREN 0C62                  _TXEN 04C5  
                _SYNC 04C4                  _C_on 0079                  _flag 03C1                  _main 0013  
                _wait 0035                  btemp 007E                  _sync 0620                  start 0011  
               ?_main 0070                 _EEADR 010D                 STR_10 0458                 STR_11 043B  
               STR_12 041E                 _BRG16 04DB                 _CARRY 0018                 _ANSEL 011E  
               ?_sync 0070                 _RCREG 001A                 _SPBRG 0099                 _PORTC 0007  
               _TRISA 0085                 _TRISB 0086                 _TRISC 0087                 _TXREG 0019  
               _conex 03C0                 _ready 007B                 _putch 0689        __pbitbssCOMMON 03C0  
               pclath 000A                 status 0003                 wtemp0 007E          __end_of_main 0200  
        __end_of_sync 0646                ??_main 002E                ??_sync 0071                _EEDATA 010C  
              _EECON1 018C                _EECON2 018D                ?_putch 0070                _ANSELH 011F  
              i1l1840 0639                i1l1841 063E                i1l1842 063E                i1l1850 0329  
              i1l1843 0645                i1l1835 0626                i1l1851 0237                i1l1844 0645  
              i1l1836 0626                i1l1860 0269                i1l1852 0326                i1l1837 062D  
              i1l1861 026A                i1l4501 024A                i1l1853 023E                i1l1838 0632  
              i1l1854 0326                i1l1870 02AF                i1l1862 0276                i1l1839 0632  
              i1l1855 02F6                i1l1871 02B9                i1l1863 0284                i1l4511 025A  
              i1l4503 024B                i1l1847 0220                i1l1872 02C3                i1l1864 0283  
              i1l1856 0243                i1l1848 021D                i1l4601 0338                i1l1857 0325  
              i1l1873 02CD                i1l1865 027D                i1l4521 0276                i1l4513 0260  
              i1l4505 0255                i1l1849 021F                i1l1874 02D7                i1l1866 0285  
              i1l1858 0253                i1l4603 033D                i1l1875 02E1                i1l1867 0291  
              i1l4531 028F                i1l4523 027C                i1l4515 0265                i1l1859 025F  
              i1l4507 0258                i1l1876 02EB                i1l1868 029B                i1l1877 034E  
              i1l4605 0343                i1l1869 02A5                i1l4541 02A0                i1l4533 0291  
              i1l4525 027D                i1l4517 026A                i1l4509 0259                i1l1878 0343  
              i1l4471 062D                i1l4607 0345                i1l1879 034E                i1l4551 02AF  
              i1l4543 02A3                i1l4535 0296                i1l4527 0285                i1l4519 0270  
              u300_20 0270                i1l4473 0639                i1l4609 034C                i1l4561 02C1  
              i1l4553 02B4                i1l4545 02A5                i1l4537 0299                i1l4529 028C  
              u300_21 026F                i1l4481 020E                i1l4571 02D2                i1l4563 02C3  
              i1l4555 02B7                i1l4547 02AA                i1l4539 029B                i1l4491 0232  
              i1l4483 0214                i1l4475 0200                i1l4469 0621                i1l4581 02E1  
              i1l4573 02D5                i1l4565 02C8                i1l4557 02B9                i1l4549 02AD  
              i1l4493 023B                i1l4485 021B                i1l4477 0204                i1l4591 02F3  
              i1l4583 02E6                i1l4575 02D7                i1l4567 02CB                i1l4559 02BE  
              i1l4495 023E                i1l4487 0226                i1l4479 0208                u301_20 027B  
              i1l4593 02F5                i1l4585 02E9                i1l4577 02DC                i1l4569 02CD  
              u301_21 027A                i1l4497 0243                i1l4489 022C                i1l4587 02EB  
              i1l4579 02DF                i1l4499 0249                i1l4595 02F6                i1l4597 032E  
              i1l4589 02F0                i1l4599 0334                u302_20 032E                u302_21 032D  
              _INTEDG 040E                u303_20 0334                u303_21 0333                u304_20 0338  
              u304_21 0337                u290_20 0644                u290_21 0643                u291_20 0204  
              u291_21 0203                u292_20 0208                u292_21 0207                u293_20 020E  
              u293_21 020D                u294_20 0214                u294_21 0213                u295_20 0226  
              u295_21 0225                u288_20 062C                u296_20 022C                u288_21 062B  
              u296_21 022B                u289_20 0638                u297_20 0232                u289_21 0637  
              u297_21 0231                u298_20 023B                u298_21 023A                u299_20 0265  
              u299_21 0264                _TMR1IE 0460                _TMR1IF 0060                _TMR1CS 0081  
              _SPBRGH 009A                _TMR1ON 0080          ?_serial_init 0070      __end_of_lcd_init 05D0  
    __end_of_lcd_goto 0689      __end_of_lcd_putc 058B                _serial 0200                _printf 05F9  
              saved_w 007E                putch@c 0026        __pcstackCOMMON 0070          __pidataBANK0 0691  
       __end_of_putch 0691    __size_of_lcd_clear 0013    __size_of_lcd_write 0029               ??_putch 0026  
          __pbssBANK0 0031            __pmaintext 0013            __pintentry 0004               ?_serial 0070  
             ?_printf 0027               _T1CKPS0 0084               _T1CKPS1 0085             ?_lcd_init 0070  
           ?_lcd_goto 0070             ?_lcd_putc 0070               _nT1SYNC 0082     __end_of_lcd_clear 0670  
   __end_of_lcd_write 05F9  __size_of_serial_init 0017               _dado_rx 007A       __size_of_serial 015A  
             _flagmin 0031       __size_of_printf 0027               _minutos 0034            ??_lcd_init 0025  
          ??_lcd_goto 0023            ??_lcd_putc 0025  end_of_initialization 067C               printf@c 002D  
             printf@f 0027          __pstringtext 0400            lcd_write@c 0022        __end_of_serial 035A  
      __end_of_printf 0620   start_initialization 0670    lcd_init@init_value 0027           __pdataBANK0 0035  
            ??_serial 0072              ??_printf 0029           __pbssCOMMON 0079         __pcstackBANK0 0020  
   __size_of_lcd_init 0045     __size_of_lcd_goto 000A     __size_of_lcd_putc 004C             __ptext330 053F  
           __ptext331 067F             __ptext332 065D             __ptext333 05D0             __ptext334 0646  
           __ptext335 0200             __ptext327 05F9             __ptext336 0620             __ptext328 0689  
           __ptext337 0000             __ptext329 058B             _lcd_clear 065D             __pstrings 035A  
           _lcd_write 05D0        __size_of_putch 0008            serial@lixo 0077     interrupt_function 0004  
       ??_serial_init 0020            ?_lcd_clear 0070           __stringbase 036C            ?_lcd_write 0070  
           lcd_putc@c 0025   __end_of_serial_init 065D              _flagstat 0032              _lcd_init 058B  
            _lcd_goto 067F              _lcd_putc 053F         __size_of_main 01ED         __size_of_sync 0026  
         ??_lcd_clear 0023           ??_lcd_write 0020              intlevel1 0000             stringcode 0364  
         _serial_init 0646              printf@ap 002C              sync@data 0070              sync@mode 0071  
            stringtab 035A  
