

HI-TECH Software PIC LITE Macro Assembler V9.83 build 10920 
                                                                                               Tue Nov 17 17:51:28 2015

HI-TECH Software Omniscient Code Generator (Lite mode) build 10920
     1  0000                     opt subtitle "HI-TECH Software Omniscient Code Generator (Lite mode) build 10920"
     2                           
     3                           opt pagewidth 120
     4                           
     5                           	opt lm
     6                           
     7                           	processor	16F690
     8                           clrc	macro
     9                           	bcf	3,0
    10  0000                     	endm
    11                           clrz	macro
    12                           	bcf	3,2
    13  0000                     	endm
    14                           setc	macro
    15                           	bsf	3,0
    16  0000                     	endm
    17                           setz	macro
    18                           	bsf	3,2
    19  0000                     	endm
    20                           skipc	macro
    21                           	btfss	3,0
    22  0000                     	endm
    23                           skipz	macro
    24                           	btfss	3,2
    25  0000                     	endm
    26                           skipnc	macro
    27                           	btfsc	3,0
    28  0000                     	endm
    29                           skipnz	macro
    30                           	btfsc	3,2
    31  0000                     	endm
    32  0000                     indf	equ	0
    33  0000                     indf0	equ	0
    34  0002                     pc	equ	2
    35  0002                     pcl	equ	2
    36  0003                     status	equ	3
    37  0004                     fsr	equ	4
    38  0004                     fsr0	equ	4
    39  0001                     c	equ	1
    40  0000                     z	equ	0
    41  000A                     pclath	equ	10
    42                           # 4 "D:\Dropbox\TC - 2015\Pesquisas\PIC\5 - Protocolo completo (envio 2x)\Dispositivo_1.
                                 c"
    43                           	psect config,class=CONFIG,delta=2 ;#
    44                           # 4 "D:\Dropbox\TC - 2015\Pesquisas\PIC\5 - Protocolo completo (envio 2x)\Dispositivo_1.
                                 c"
    45  2007  FFE4               	dw 0xFFFC & 0xFFF7 & 0xFFEF & 0xFFFF ;#
    46                           	FNCALL	_main,_T2_init
    47                           	FNCALL	_main,_init
    48                           	FNCALL	_main,_serial_init
    49                           	FNCALL	_main,_lcd_init
    50                           	FNCALL	_main,_send
    51                           	FNCALL	_main,_protocol_bt
    52                           	FNCALL	_lcd_init,_Enable
    53                           	FNCALL	_lcd_init,_Write
    54                           	FNCALL	_lcd_init,_Clear
    55                           	FNCALL	_Clear,_Write
    56                           	FNCALL	_send,_scode
    57                           	FNCALL	_send,_test_bit
    58                           	FNCALL	_send,_end_cycle
    59                           	FNCALL	_Write,_Enable
    60                           	FNCALL	_protocol_bt,_acao_bt
    61                           	FNROOT	_main
    62                           	FNCALL	_interrupts,_printf
    63                           	FNCALL	_printf,_putch
    64                           	FNCALL	_printf,___lwdiv
    65                           	FNCALL	_printf,___lwmod
    66                           	FNCALL	_putch,_lcd_putc
    67                           	FNCALL	_lcd_putc,i1_Clear
    68                           	FNCALL	_lcd_putc,_lcd_goto
    69                           	FNCALL	_lcd_putc,i1_Write
    70                           	FNCALL	_lcd_putc,_lcd_putc
    71                           	FNCALL	i1_Clear,i1_Write
    72                           	FNCALL	_lcd_goto,i1_Write
    73                           	FNCALL	i1_Write,i1_Enable
    74                           	FNCALL	intlevel1,_interrupts
    75                           	global	intlevel1
    76                           	FNROOT	intlevel1
    77                           	global	_dpowers
    78                           psect	strings,class=STRING,delta=2
    79                           global __pstrings
    80  0592                     __pstrings:
    81                           ;	global	stringdir,stringtab,__stringbase
    82  0592                     stringtab:
    83                           ;	String table - string pointers are 1 byte each
    84  0592                     stringcode:stringdir:
      + 0592                     stringdir:	
    85  0592  3005               movlw high(stringdir)
    86  0593  008A               movwf pclath
    87  0594  0804               movf fsr,w
    88  0595  0A84               incf fsr
    89  0596  0782               	addwf pc
    90  0597                     __stringbase:
    91  0597  3400               	retlw	0
    92                           psect	strings
    93                           	file	"C:\Program Files (x86)\HI-TECH Software\PICC\9.83\sources\doprnt.c"
    94                           	line	350
    95  0598                     _dpowers:
    96  0598  3401               	retlw	01h
    97  0599  3400               	retlw	0
    98                           
    99  059A  340A               	retlw	0Ah
   100  059B  3400               	retlw	0
   101                           
   102  059C  3464               	retlw	064h
   103  059D  3400               	retlw	0
   104                           
   105  059E  34E8               	retlw	0E8h
   106  059F  3403               	retlw	03h
   107                           
   108  05A0  3410               	retlw	010h
   109  05A1  3427               	retlw	027h
   110                           
   111                           	global	_dpowers
   112                           	global	_byte_cont
   113                           	global	_cycle
   114                           	global	_dado_rx
   115                           	global	_dado_rx0
   116                           	global	_dado_tx
   117                           	global	_flag
   118                           	global	_lixo
   119                           	global	_start_cont
   120                           	global	_bit_tx
   121                           	global	_bt_use
   122                           	global	_byte_done
   123                           	global	_end_startcode
   124                           	global	_env
   125                           	global	_enviando
   126                           	global	_enviar
   127                           	global	_recebendo
   128                           	global	_recebeu_bit
   129                           	global	_start
   130                           	global	_testa
   131                           	global	_CCP1CON
   132  0017                     _CCP1CON	set	23
   133                           	global	_CCPR1L
   134  0015                     _CCPR1L	set	21
   135                           	global	_INTCON
   136  000B                     _INTCON	set	11
   137                           	global	_PORTA
   138  0005                     _PORTA	set	5
   139                           	global	_PORTB
   140  0006                     _PORTB	set	6
   141                           	global	_PORTC
   142  0007                     _PORTC	set	7
   143                           	global	_RCREG
   144  001A                     _RCREG	set	26
   145                           	global	_T2CON
   146  0012                     _T2CON	set	18
   147                           	global	_TMR2
   148  0011                     _TMR2	set	17
   149                           	global	_CARRY
   150  0018                     _CARRY	set	24
   151                           	global	_CREN
   152  00C4                     _CREN	set	196
   153                           	global	_FERR
   154  00C2                     _FERR	set	194
   155                           	global	_GIE
   156  005F                     _GIE	set	95
   157                           	global	_INTF
   158  0059                     _INTF	set	89
   159                           	global	_OERR
   160  00C1                     _OERR	set	193
   161                           	global	_PEIE
   162  005E                     _PEIE	set	94
   163                           	global	_RA4
   164  002C                     _RA4	set	44
   165                           	global	_RC6
   166  003E                     _RC6	set	62
   167                           	global	_RC7
   168  003F                     _RC7	set	63
   169                           	global	_RCIF
   170  0065                     _RCIF	set	101
   171                           	global	_RX9
   172  00C6                     _RX9	set	198
   173                           	global	_SPEN
   174  00C7                     _SPEN	set	199
   175                           	global	_TMR2ON
   176  0092                     _TMR2ON	set	146
   177                           	global	_OSCCON
   178  008F                     _OSCCON	set	143
   179                           	global	_PR2
   180  0092                     _PR2	set	146
   181                           	global	_SPBRG
   182  0099                     _SPBRG	set	153
   183                           	global	_SPBRGH
   184  009A                     _SPBRGH	set	154
   185                           	global	_TRISA
   186  0085                     _TRISA	set	133
   187                           	global	_TRISB
   188  0086                     _TRISB	set	134
   189                           	global	_TRISC
   190  0087                     _TRISC	set	135
   191                           	global	_BRG16
   192  04DB                     _BRG16	set	1243
   193                           	global	_BRGH
   194  04C2                     _BRGH	set	1218
   195                           	global	_RCIE
   196  0465                     _RCIE	set	1125
   197                           	global	_SYNC
   198  04C4                     _SYNC	set	1220
   199                           	global	_TX9
   200  04C6                     _TX9	set	1222
   201                           	global	_TXEN
   202  04C5                     _TXEN	set	1221
   203                           	global	_TXIE
   204  0464                     _TXIE	set	1124
   205                           	global	_ANSEL
   206  011E                     _ANSEL	set	286
   207                           	global	_ANSELH
   208  011F                     _ANSELH	set	287
   209                           	global	_EEADR
   210  010D                     _EEADR	set	269
   211                           	global	_EEDATA
   212  010C                     _EEDATA	set	268
   213                           	global	_EECON1
   214  018C                     _EECON1	set	396
   215                           	global	_EECON2
   216  018D                     _EECON2	set	397
   217                           	global	_RD
   218  0C60                     _RD	set	3168
   219                           	global	_WR
   220  0C61                     _WR	set	3169
   221                           	global	_WREN
   222  0C62                     _WREN	set	3170
   223                           	
   224  05A2                     STR_1:	
   225  05A2  340C               	retlw	12
   226  05A3  3425               	retlw	37	;'%'
   227  05A4  3464               	retlw	100	;'d'
   228  05A5  3400               	retlw	0
   229                           psect	strings
   230                           	file	"Dispositivo 1.as"
   231                           	line	#
   232                           psect cinit,class=CODE,delta=2
   233                           global start_initialization
   234  05DA                     start_initialization:
   235                           
   236                           psect	bssBANK0,class=BANK0,space=1
   237                           global __pbssBANK0
   238  003D                     __pbssBANK0:
   239  003D                     _byte_cont:
   240  003D                            ds      1
   241                           
   242  003E                     _cycle:
   243  003E                            ds      1
   244                           
   245  003F                     _dado_rx:
   246  003F                            ds      1
   247                           
   248  0040                     _dado_rx0:
   249  0040                            ds      1
   250                           
   251  0041                     _dado_tx:
   252  0041                            ds      1
   253                           
   254  0042                     _flag:
   255  0042                            ds      1
   256                           
   257  0043                     _lixo:
   258  0043                            ds      1
   259                           
   260  0044                     _start_cont:
   261  0044                            ds      1
   262                           
   263                           psect	bitbssBANK1,class=BANK1,bit,space=1
   264                           global __pbitbssBANK1
   265  0500                     __pbitbssBANK1:
   266  0500                     _bit_tx:
   267  0500                            ds      1
   268                           
   269  0501                     _bt_use:
   270  0501                            ds      1
   271                           
   272  0502                     _byte_done:
   273  0502                            ds      1
   274                           
   275  0503                     _end_startcode:
   276  0503                            ds      1
   277                           
   278  0504                     _env:
   279  0504                            ds      1
   280                           
   281  0505                     _enviando:
   282  0505                            ds      1
   283                           
   284  0506                     _enviar:
   285  0506                            ds      1
   286                           
   287  0507                     _recebendo:
   288  0507                            ds      1
   289                           
   290  0508                     _recebeu_bit:
   291  0508                            ds      1
   292                           
   293  0509                     _start:
   294  0509                            ds      1
   295                           
   296  050A                     _testa:
   297  050A                            ds      1
   298                           
   299                           ; Clear objects allocated to BANK0
   300                           psect cinit,class=CODE,delta=2
   301  05DA  01BD               	clrf	((__pbssBANK0)+0)&07Fh
   302  05DB  01BE               	clrf	((__pbssBANK0)+1)&07Fh
   303  05DC  01BF               	clrf	((__pbssBANK0)+2)&07Fh
   304  05DD  01C0               	clrf	((__pbssBANK0)+3)&07Fh
   305  05DE  01C1               	clrf	((__pbssBANK0)+4)&07Fh
   306  05DF  01C2               	clrf	((__pbssBANK0)+5)&07Fh
   307  05E0  01C3               	clrf	((__pbssBANK0)+6)&07Fh
   308  05E1  01C4               	clrf	((__pbssBANK0)+7)&07Fh
   309                           ; Clear objects allocated to BITBANK1
   310                           psect cinit,class=CODE,delta=2
   311  05E2  1683               	bsf	status, 5	;RP0=1, select bank1
   312  05E3  1303               	bcf	status, 6	;RP1=0, select bank1
   313  05E4  01A0               	clrf	((__pbitbssBANK1/8)+0)&07Fh
   314  05E5  01A1               	clrf	((__pbitbssBANK1/8)+1)&07Fh
   315                           psect cinit,class=CODE,delta=2
   316                           global end_of_initialization
   317                           
   318                           ;End of C runtime variable initialization code
   319                           
   320  05E6                     end_of_initialization:
   321  05E6  0183               clrf status
   322  05E7  118A  2AA6         ljmp _main	;jump to C main() function
   323                           psect	cstackCOMMON,class=COMMON,space=1
   324                           global __pcstackCOMMON
   325  0070                     __pcstackCOMMON:
   326                           	global	?_lcd_goto
   327  0070                     ?_lcd_goto:	; 0 bytes @ 0x0
   328                           	global	?_Enable
   329  0070                     ?_Enable:	; 0 bytes @ 0x0
   330                           	global	?_Write
   331  0070                     ?_Write:	; 0 bytes @ 0x0
   332                           	global	?_Clear
   333  0070                     ?_Clear:	; 0 bytes @ 0x0
   334                           	global	?_lcd_putc
   335  0070                     ?_lcd_putc:	; 0 bytes @ 0x0
   336                           	global	?_lcd_init
   337  0070                     ?_lcd_init:	; 0 bytes @ 0x0
   338                           	global	?_putch
   339  0070                     ?_putch:	; 0 bytes @ 0x0
   340                           	global	?_acao_bt
   341  0070                     ?_acao_bt:	; 0 bytes @ 0x0
   342                           	global	?_protocol_bt
   343  0070                     ?_protocol_bt:	; 0 bytes @ 0x0
   344                           	global	?_scode
   345  0070                     ?_scode:	; 0 bytes @ 0x0
   346                           	global	?_test_bit
   347  0070                     ?_test_bit:	; 0 bytes @ 0x0
   348                           	global	?_end_cycle
   349  0070                     ?_end_cycle:	; 0 bytes @ 0x0
   350                           	global	?_send
   351  0070                     ?_send:	; 0 bytes @ 0x0
   352                           	global	?_interrupts
   353  0070                     ?_interrupts:	; 0 bytes @ 0x0
   354                           	global	?_T2_init
   355  0070                     ?_T2_init:	; 0 bytes @ 0x0
   356                           	global	?_serial_init
   357  0070                     ?_serial_init:	; 0 bytes @ 0x0
   358                           	global	?_init
   359  0070                     ?_init:	; 0 bytes @ 0x0
   360                           	global	?_main
   361  0070                     ?_main:	; 0 bytes @ 0x0
   362                           	global	?i1_Enable
   363  0070                     ?i1_Enable:	; 0 bytes @ 0x0
   364                           	global	??i1_Enable
   365  0070                     ??i1_Enable:	; 0 bytes @ 0x0
   366                           	global	?i1_Write
   367  0070                     ?i1_Write:	; 0 bytes @ 0x0
   368                           	global	??i1_Write
   369  0070                     ??i1_Write:	; 0 bytes @ 0x0
   370                           	global	?i1_Clear
   371  0070                     ?i1_Clear:	; 0 bytes @ 0x0
   372                           	global	?___lwdiv
   373  0070                     ?___lwdiv:	; 2 bytes @ 0x0
   374                           	global	___lwdiv@divisor
   375  0070                     ___lwdiv@divisor:	; 2 bytes @ 0x0
   376  0070                     	ds	2
   377                           	global	i1Write@c
   378  0072                     i1Write@c:	; 1 bytes @ 0x2
   379                           	global	___lwdiv@dividend
   380  0072                     ___lwdiv@dividend:	; 2 bytes @ 0x2
   381  0072                     	ds	1
   382                           	global	??_lcd_goto
   383  0073                     ??_lcd_goto:	; 0 bytes @ 0x3
   384                           	global	??i1_Clear
   385  0073                     ??i1_Clear:	; 0 bytes @ 0x3
   386                           	global	lcd_goto@pos
   387  0073                     lcd_goto@pos:	; 1 bytes @ 0x3
   388  0073                     	ds	1
   389                           	global	??___lwdiv
   390  0074                     ??___lwdiv:	; 0 bytes @ 0x4
   391  0074                     	ds	1
   392                           	global	??_lcd_putc
   393  0075                     ??_lcd_putc:	; 0 bytes @ 0x5
   394                           	global	lcd_putc@c
   395  0075                     lcd_putc@c:	; 1 bytes @ 0x5
   396                           	global	___lwdiv@quotient
   397  0075                     ___lwdiv@quotient:	; 2 bytes @ 0x5
   398  0075                     	ds	1
   399                           	global	??_putch
   400  0076                     ??_putch:	; 0 bytes @ 0x6
   401                           	global	putch@c
   402  0076                     putch@c:	; 1 bytes @ 0x6
   403  0076                     	ds	1
   404                           	global	___lwdiv@counter
   405  0077                     ___lwdiv@counter:	; 1 bytes @ 0x7
   406  0077                     	ds	1
   407                           	global	?___lwmod
   408  0078                     ?___lwmod:	; 2 bytes @ 0x8
   409                           	global	___lwmod@divisor
   410  0078                     ___lwmod@divisor:	; 2 bytes @ 0x8
   411  0078                     	ds	2
   412                           	global	___lwmod@dividend
   413  007A                     ___lwmod@dividend:	; 2 bytes @ 0xA
   414  007A                     	ds	2
   415                           	global	??___lwmod
   416  007C                     ??___lwmod:	; 0 bytes @ 0xC
   417  007C                     	ds	1
   418                           	global	___lwmod@counter
   419  007D                     ___lwmod@counter:	; 1 bytes @ 0xD
   420  007D                     	ds	1
   421                           psect	cstackBANK0,class=BANK0,space=1
   422                           global __pcstackBANK0
   423  0020                     __pcstackBANK0:
   424                           	global	?_printf
   425  0020                     ?_printf:	; 2 bytes @ 0x0
   426  0020                     	ds	2
   427                           	global	??_printf
   428  0022                     ??_printf:	; 0 bytes @ 0x2
   429  0022                     	ds	3
   430                           	global	printf@ap
   431  0025                     printf@ap:	; 1 bytes @ 0x5
   432  0025                     	ds	1
   433                           	global	printf@flag
   434  0026                     printf@flag:	; 1 bytes @ 0x6
   435  0026                     	ds	1
   436                           	global	printf@f
   437  0027                     printf@f:	; 1 bytes @ 0x7
   438  0027                     	ds	1
   439                           	global	printf@prec
   440  0028                     printf@prec:	; 1 bytes @ 0x8
   441  0028                     	ds	1
   442                           	global	printf@_val
   443  0029                     printf@_val:	; 4 bytes @ 0x9
   444  0029                     	ds	4
   445                           	global	printf@c
   446  002D                     printf@c:	; 1 bytes @ 0xD
   447  002D                     	ds	1
   448                           	global	??_interrupts
   449  002E                     ??_interrupts:	; 0 bytes @ 0xE
   450  002E                     	ds	6
   451                           	global	??_Enable
   452  0034                     ??_Enable:	; 0 bytes @ 0x14
   453                           	global	??_Write
   454  0034                     ??_Write:	; 0 bytes @ 0x14
   455                           	global	??_acao_bt
   456  0034                     ??_acao_bt:	; 0 bytes @ 0x14
   457                           	global	??_protocol_bt
   458  0034                     ??_protocol_bt:	; 0 bytes @ 0x14
   459                           	global	??_scode
   460  0034                     ??_scode:	; 0 bytes @ 0x14
   461                           	global	??_test_bit
   462  0034                     ??_test_bit:	; 0 bytes @ 0x14
   463                           	global	??_end_cycle
   464  0034                     ??_end_cycle:	; 0 bytes @ 0x14
   465                           	global	??_T2_init
   466  0034                     ??_T2_init:	; 0 bytes @ 0x14
   467                           	global	??_serial_init
   468  0034                     ??_serial_init:	; 0 bytes @ 0x14
   469                           	global	??_init
   470  0034                     ??_init:	; 0 bytes @ 0x14
   471  0034                     	ds	2
   472                           	global	??_send
   473  0036                     ??_send:	; 0 bytes @ 0x16
   474                           	global	Write@c
   475  0036                     Write@c:	; 1 bytes @ 0x16
   476  0036                     	ds	1
   477                           	global	??_Clear
   478  0037                     ??_Clear:	; 0 bytes @ 0x17
   479  0037                     	ds	2
   480                           	global	??_lcd_init
   481  0039                     ??_lcd_init:	; 0 bytes @ 0x19
   482  0039                     	ds	2
   483                           	global	??_main
   484  003B                     ??_main:	; 0 bytes @ 0x1B
   485  003B                     	ds	2
   486 ;;Data sizes: Strings 4, constant 10, data 0, bss 8, persistent 0 stack 0
   487 ;;Auto spaces:   Size  Autos    Used
   488 ;; COMMON          14     14      14
   489 ;; BANK0           80     29      37
   490 ;; BANK1           80      0       2
   491 ;; BANK2           80      0       0
   492                           
   493 ;;
   494 ;; Pointer list with targets:
   495                           
   496 ;; ?___lwdiv	unsigned int  size(1) Largest target is 0
   497 ;;
   498 ;; ?___lwmod	unsigned int  size(1) Largest target is 0
   499 ;;
   500 ;; printf@f	PTR const unsigned char  size(1) Largest target is 4
   501 ;;		 -> STR_1(CODE[4]), 
   502 ;;
   503 ;; ?_printf	int  size(1) Largest target is 0
   504 ;;
   505 ;; printf@ap	PTR void [1] size(1) Largest target is 2
   506 ;;		 -> ?_printf(BANK0[2]), 
   507 ;;
   508 ;; S1646$_cp	PTR const unsigned char  size(1) Largest target is 0
   509 ;;
   510 ;; _val._str._cp	PTR const unsigned char  size(1) Largest target is 0
   511 ;;
   512                           
   513                           
   514 ;;
   515 ;; Critical Paths under _main in COMMON
   516 ;;
   517 ;;   None.
   518 ;;
   519 ;; Critical Paths under _interrupts in COMMON
   520 ;;
   521 ;;   _printf->___lwmod
   522 ;;   _putch->_lcd_putc
   523 ;;   _lcd_putc->i1_Clear
   524 ;;   i1_Clear->i1_Write
   525 ;;   _lcd_goto->i1_Write
   526 ;;   ___lwmod->___lwdiv
   527 ;;
   528 ;; Critical Paths under _main in BANK0
   529 ;;
   530 ;;   _main->_lcd_init
   531 ;;   _lcd_init->_Clear
   532 ;;   _Clear->_Write
   533 ;;   _send->_scode
   534 ;;   _send->_test_bit
   535 ;;
   536 ;; Critical Paths under _interrupts in BANK0
   537 ;;
   538 ;;   _interrupts->_printf
   539 ;;
   540 ;; Critical Paths under _main in BANK1
   541 ;;
   542 ;;   None.
   543 ;;
   544 ;; Critical Paths under _interrupts in BANK1
   545 ;;
   546 ;;   None.
   547 ;;
   548 ;; Critical Paths under _main in BANK2
   549 ;;
   550 ;;   None.
   551 ;;
   552 ;; Critical Paths under _interrupts in BANK2
   553 ;;
   554 ;;   None.
   555                           
   556 ;;
   557 ;;Main: autosize = 0, tempsize = 2, incstack = 0, save=0
   558 ;;
   559                           
   560 ;;
   561 ;;Call Graph Tables:
   562 ;;
   563 ;; ---------------------------------------------------------------------------------
   564 ;; (Depth) Function   	        Calls       Base Space   Used Autos Params    Refs
   565 ;; ---------------------------------------------------------------------------------
   566 ;; (0) _main                                                 2     2      0      88
   567 ;;                                             27 BANK0      2     2      0
   568 ;;                            _T2_init
   569 ;;                               _init
   570 ;;                        _serial_init
   571 ;;                           _lcd_init
   572 ;;                               _send
   573 ;;                        _protocol_bt
   574 ;; ---------------------------------------------------------------------------------
   575 ;; (1) _lcd_init                                             2     2      0      88
   576 ;;                                             25 BANK0      2     2      0
   577 ;;                             _Enable
   578 ;;                              _Write
   579 ;;                              _Clear
   580 ;; ---------------------------------------------------------------------------------
   581 ;; (2) _Clear                                                2     2      0      44
   582 ;;                                             23 BANK0      2     2      0
   583 ;;                              _Write
   584 ;; ---------------------------------------------------------------------------------
   585 ;; (1) _send                                                 1     1      0       0
   586 ;;                                             22 BANK0      1     1      0
   587 ;;                              _scode
   588 ;;                           _test_bit
   589 ;;                          _end_cycle
   590 ;; ---------------------------------------------------------------------------------
   591 ;; (3) _Write                                                3     3      0      44
   592 ;;                                             20 BANK0      3     3      0
   593 ;;                             _Enable
   594 ;; ---------------------------------------------------------------------------------
   595 ;; (2) _test_bit                                             2     2      0       0
   596 ;;                                             20 BANK0      2     2      0
   597 ;; ---------------------------------------------------------------------------------
   598 ;; (2) _scode                                                2     2      0       0
   599 ;;                                             20 BANK0      2     2      0
   600 ;; ---------------------------------------------------------------------------------
   601 ;; (1) _protocol_bt                                          1     1      0       0
   602 ;;                                             20 BANK0      1     1      0
   603 ;;                            _acao_bt
   604 ;; ---------------------------------------------------------------------------------
   605 ;; (4) _Enable                                               0     0      0       0
   606 ;; ---------------------------------------------------------------------------------
   607 ;; (1) _init                                                 0     0      0       0
   608 ;; ---------------------------------------------------------------------------------
   609 ;; (1) _serial_init                                          0     0      0       0
   610 ;; ---------------------------------------------------------------------------------
   611 ;; (1) _T2_init                                              0     0      0       0
   612 ;; ---------------------------------------------------------------------------------
   613 ;; (2) _end_cycle                                            0     0      0       0
   614 ;; ---------------------------------------------------------------------------------
   615 ;; (2) _acao_bt                                              0     0      0       0
   616 ;; ---------------------------------------------------------------------------------
   617 ;; Estimated maximum stack depth 4
   618 ;; ---------------------------------------------------------------------------------
   619 ;; (Depth) Function   	        Calls       Base Space   Used Autos Params    Refs
   620 ;; ---------------------------------------------------------------------------------
   621 ;; (5) _interrupts                                           6     6      0    1737
   622 ;;                                             14 BANK0      6     6      0
   623 ;;                             _printf
   624 ;; ---------------------------------------------------------------------------------
   625 ;; (6) _printf                                              14    12      2    1737
   626 ;;                                              0 BANK0     14    12      2
   627 ;;                              _putch
   628 ;;                            ___lwdiv
   629 ;;                            ___lwmod
   630 ;; ---------------------------------------------------------------------------------
   631 ;; (7) _putch                                                1     1      0    1030
   632 ;;                                              6 COMMON     1     1      0
   633 ;;                           _lcd_putc
   634 ;; ---------------------------------------------------------------------------------
   635 ;; (8) _lcd_putc                                             1     1      0    1008
   636 ;;                                              5 COMMON     1     1      0
   637 ;;                            i1_Clear
   638 ;;                           _lcd_goto
   639 ;;                            i1_Write
   640 ;;                           _lcd_putc
   641 ;; ---------------------------------------------------------------------------------
   642 ;; (9) i1_Clear                                              2     2      0     146
   643 ;;                                              3 COMMON     2     2      0
   644 ;;                            i1_Write
   645 ;; ---------------------------------------------------------------------------------
   646 ;; (9) _lcd_goto                                             1     1      0     168
   647 ;;                                              3 COMMON     1     1      0
   648 ;;                            i1_Write
   649 ;; ---------------------------------------------------------------------------------
   650 ;; (9) i1_Write                                              3     3      0     146
   651 ;;                                              0 COMMON     3     3      0
   652 ;;                           i1_Enable
   653 ;; ---------------------------------------------------------------------------------
   654 ;; (10) i1_Enable                                            0     0      0       0
   655 ;; ---------------------------------------------------------------------------------
   656 ;; (7) ___lwmod                                              6     2      4     159
   657 ;;                                              8 COMMON     6     2      4
   658 ;;                            ___lwdiv (ARG)
   659 ;; ---------------------------------------------------------------------------------
   660 ;; (7) ___lwdiv                                              8     4      4     162
   661 ;;                                              0 COMMON     8     4      4
   662 ;; ---------------------------------------------------------------------------------
   663 ;; Estimated maximum stack depth 10
   664 ;; ---------------------------------------------------------------------------------
   665                           
   666 ;; Call Graph Graphs:
   667                           
   668 ;; _main (ROOT)
   669 ;;   _T2_init
   670 ;;   _init
   671 ;;   _serial_init
   672 ;;   _lcd_init
   673 ;;     _Enable
   674 ;;     _Write
   675 ;;       _Enable
   676 ;;     _Clear
   677 ;;       _Write
   678 ;;         _Enable
   679 ;;   _send
   680 ;;     _scode
   681 ;;     _test_bit
   682 ;;     _end_cycle
   683 ;;   _protocol_bt
   684 ;;     _acao_bt
   685 ;;
   686 ;; _interrupts (ROOT)
   687 ;;   _printf
   688 ;;     _putch
   689 ;;       _lcd_putc
   690 ;;         i1_Clear
   691 ;;           i1_Write
   692 ;;             i1_Enable
   693 ;;         _lcd_goto
   694 ;;           i1_Write
   695 ;;             i1_Enable
   696 ;;         i1_Write
   697 ;;           i1_Enable
   698 ;;     ___lwdiv
   699 ;;     ___lwmod
   700 ;;       ___lwdiv (ARG)
   701 ;;
   702                           
   703 ;; Address spaces:
   704                           
   705 ;;Name               Size   Autos  Total    Cost      Usage
   706 ;;BITCOMMON            E      0       0       0        0.0%
   707 ;;EEDATA             100      0       0       0        0.0%
   708 ;;NULL                 0      0       0       0        0.0%
   709 ;;CODE                 0      0       0       0        0.0%
   710 ;;COMMON               E      E       E       1      100.0%
   711 ;;BITSFR0              0      0       0       1        0.0%
   712 ;;SFR0                 0      0       0       1        0.0%
   713 ;;BITSFR1              0      0       0       2        0.0%
   714 ;;SFR1                 0      0       0       2        0.0%
   715 ;;STACK                0      0      14       2        0.0%
   716 ;;BANK0               50     1D      25       3       46.3%
   717 ;;BITBANK1            50      0       2       4        2.5%
   718 ;;BITSFR3              0      0       0       4        0.0%
   719 ;;SFR3                 0      0       0       4        0.0%
   720 ;;BANK1               50      0       2       5        2.5%
   721 ;;BITSFR2              0      0       0       5        0.0%
   722 ;;SFR2                 0      0       0       5        0.0%
   723 ;;BITBANK2            50      0       0       6        0.0%
   724 ;;BANK2               50      0       0       7        0.0%
   725 ;;ABS                  0      0      35       8        0.0%
   726 ;;BITBANK0            50      0       0       9        0.0%
   727 ;;DATA                 0      0      49      10        0.0%
   728                           
   729                           	global	_main
   730                           psect	maintext,global,class=CODE,delta=2
   731                           global __pmaintext
   732  02A6                     __pmaintext:
   733                           
   734 ;; *************** function _main *****************
   735 ;; Defined at:
   736 ;;		line 189 in file "D:\Dropbox\TC - 2015\Pesquisas\PIC\5 - Protocolo completo (envio 2x)\Dispositivo_1.c"
   737 ;; Parameters:    Size  Location     Type
   738 ;;		None
   739 ;; Auto vars:     Size  Location     Type
   740 ;;		None
   741 ;; Return value:  Size  Location     Type
   742 ;;		None               void
   743 ;; Registers used:
   744 ;;		wreg, fsr0l, fsr0h, status,2, status,0, pclath, cstack
   745 ;; Tracked objects:
   746 ;;		On entry : 17F/0
   747 ;;		On exit  : 0/0
   748 ;;		Unchanged: 0/0
   749 ;; Data sizes:     COMMON   BANK0   BANK1   BANK2
   750 ;;      Params:         0       0       0       0
   751 ;;      Locals:         0       0       0       0
   752 ;;      Temps:          0       2       0       0
   753 ;;      Totals:         0       2       0       0
   754 ;;Total ram usage:        2 bytes
   755 ;; Hardware stack levels required when called:   11
   756 ;; This function calls:
   757 ;;		_T2_init
   758 ;;		_init
   759 ;;		_serial_init
   760 ;;		_lcd_init
   761 ;;		_send
   762 ;;		_protocol_bt
   763 ;; This function is called by:
   764 ;;		Startup code after reset
   765 ;; This function uses a non-reentrant model
   766 ;;
   767                           psect	maintext
   768                           	file	"D:\Dropbox\TC - 2015\Pesquisas\PIC\5 - Protocolo completo (envio 2x)\Dispositivo_
                                 1.c"
   769                           	line	189
   770                           	global	__size_of_main
   771  005C                     	__size_of_main	equ	__end_of_main-_main
   772                           	
   773  02A6                     _main:	
   774 ;; hardware stack exceeded
   775                           	opt	stack 0
   776                           ; Regs used in _main: [wreg-fsr0h+status,2+status,0+pclath+cstack]
   777                           	line	190
   778                           	
   779  02A6                     l4014:	
   780                           ;Dispositivo_1.c: 190: OSCCON=0b01110000;
   781  02A6  3070               	movlw	(070h)
   782  02A7  1683               	bsf	status, 5	;RP0=1, select bank1
   783  02A8  1303               	bcf	status, 6	;RP1=0, select bank1
   784  02A9  008F               	movwf	(143)^080h	;volatile
   785                           	line	191
   786                           	
   787  02AA                     l4016:	
   788                           ;Dispositivo_1.c: 191: ANSEL=0;
   789  02AA  1283               	bcf	status, 5	;RP0=0, select bank2
   790  02AB  1703               	bsf	status, 6	;RP1=1, select bank2
   791  02AC  019E               	clrf	(286)^0100h	;volatile
   792                           	line	192
   793                           	
   794  02AD                     l4018:	
   795                           ;Dispositivo_1.c: 192: ANSELH=0;
   796  02AD  019F               	clrf	(287)^0100h	;volatile
   797                           	line	193
   798                           ;Dispositivo_1.c: 193: TRISA=0b00000100;
   799  02AE  3004               	movlw	(04h)
   800  02AF  1683               	bsf	status, 5	;RP0=1, select bank1
   801  02B0  1303               	bcf	status, 6	;RP1=0, select bank1
   802  02B1  0085               	movwf	(133)^080h	;volatile
   803                           	line	194
   804                           	
   805  02B2                     l4020:	
   806                           ;Dispositivo_1.c: 194: TRISB=0;
   807  02B2  0186               	clrf	(134)^080h	;volatile
   808                           	line	195
   809                           	
   810  02B3                     l4022:	
   811                           ;Dispositivo_1.c: 195: TRISC=0;
   812  02B3  0187               	clrf	(135)^080h	;volatile
   813                           	line	196
   814                           	
   815  02B4                     l4024:	
   816                           ;Dispositivo_1.c: 196: PORTA=PORTB=PORTC=0;
   817  02B4  1283               	bcf	status, 5	;RP0=0, select bank0
   818  02B5  1303               	bcf	status, 6	;RP1=0, select bank0
   819  02B6  0187               	clrf	(7)	;volatile
   820  02B7  0186               	clrf	(6)	;volatile
   821  02B8  0185               	clrf	(5)	;volatile
   822                           	line	197
   823                           	
   824  02B9                     l4026:	
   825                           ;Dispositivo_1.c: 197: INTCON=0b11010000;
   826  02B9  30D0               	movlw	(0D0h)
   827  02BA  008B               	movwf	(11)	;volatile
   828                           	line	198
   829                           	
   830  02BB                     l4028:	
   831                           ;Dispositivo_1.c: 198: T2_init();
   832  02BB  118A  25CA  118A   	fcall	_T2_init
   833                           	line	199
   834                           	
   835  02BE                     l4030:	
   836                           ;Dispositivo_1.c: 199: init();
   837  02BE  118A  25E9  118A   	fcall	_init
   838                           	line	200
   839                           	
   840  02C1                     l4032:	
   841                           ;Dispositivo_1.c: 200: serial_init();
   842  02C1  118A  257B  118A   	fcall	_serial_init
   843                           	line	201
   844                           	
   845  02C4                     l4034:	
   846                           ;Dispositivo_1.c: 201: lcd_init();
   847  02C4  118A  2302  118A   	fcall	_lcd_init
   848                           	line	202
   849                           	
   850  02C7                     l4036:	
   851                           ;Dispositivo_1.c: 202: _delay((unsigned long)((5)*(4000000/4000.0)));
   852                           	opt asmopt_off
   853  02C7  3007               movlw	7
   854  02C8  1283               	bcf	status, 5	;RP0=0, select bank0
   855  02C9  1303               	bcf	status, 6	;RP1=0, select bank0
   856  02CA  00BC               movwf	((??_main+0)+0+1),f
   857  02CB  307D               	movlw	125
   858  02CC  00BB               movwf	((??_main+0)+0),f
   859  02CD                     u3467:
   860  02CD  0BBB               	decfsz	((??_main+0)+0),f
   861  02CE  2ACD               	goto	u3467
   862  02CF  0BBC               	decfsz	((??_main+0)+0+1),f
   863  02D0  2ACD               	goto	u3467
   864                           opt asmopt_on
   865                           
   866  02D1  2AD2               	goto	l4038
   867                           	line	204
   868                           ;Dispositivo_1.c: 204: while(1){
   869                           	
   870  02D2                     l1046:	
   871                           	line	205
   872                           	
   873  02D2                     l4038:	
   874                           ;Dispositivo_1.c: 205: if(dado_tx){
   875  02D2  1283               	bcf	status, 5	;RP0=0, select bank0
   876  02D3  1303               	bcf	status, 6	;RP1=0, select bank0
   877  02D4  0841               	movf	(_dado_tx),w
   878  02D5  1D03               	skipz
   879  02D6  2AD8               	goto	u3420
   880  02D7  2ADB               	goto	l1047
   881  02D8                     u3420:
   882                           	line	206
   883                           	
   884  02D8                     l4040:	
   885                           ;Dispositivo_1.c: 206: enviando=1;
   886  02D8  1683               	bsf	status, 5	;RP0=1, select bank1
   887  02D9  1303               	bcf	status, 6	;RP1=0, select bank1
   888  02DA  16A0               	bsf	(_enviando/8)^080h,(_enviando)&7
   889                           	line	207
   890                           	
   891  02DB                     l1047:	
   892                           	line	208
   893                           ;Dispositivo_1.c: 207: }
   894                           ;Dispositivo_1.c: 208: if(enviando){
   895  02DB  1683               	bsf	status, 5	;RP0=1, select bank1
   896  02DC  1303               	bcf	status, 6	;RP1=0, select bank1
   897  02DD  1EA0               	btfss	(_enviando/8)^080h,(_enviando)&7
   898  02DE  2AE0               	goto	u3431
   899  02DF  2AE1               	goto	u3430
   900  02E0                     u3431:
   901  02E0  2AEA               	goto	l4046
   902  02E1                     u3430:
   903                           	line	209
   904                           	
   905  02E1                     l4042:	
   906                           ;Dispositivo_1.c: 209: if(enviar){
   907  02E1  1F20               	btfss	(_enviar/8)^080h,(_enviar)&7
   908  02E2  2AE4               	goto	u3441
   909  02E3  2AE5               	goto	u3440
   910  02E4                     u3441:
   911  02E4  2AEA               	goto	l4046
   912  02E5                     u3440:
   913                           	line	210
   914                           	
   915  02E5                     l4044:	
   916                           ;Dispositivo_1.c: 210: send();
   917  02E5  118A  2013  118A   	fcall	_send
   918  02E8  2AEA               	goto	l4046
   919                           	line	211
   920                           	
   921  02E9                     l1049:	
   922  02E9  2AEA               	goto	l4046
   923                           	line	212
   924                           	
   925  02EA                     l1048:	
   926                           	line	213
   927                           	
   928  02EA                     l4046:	
   929                           ;Dispositivo_1.c: 211: }
   930                           ;Dispositivo_1.c: 212: }
   931                           ;Dispositivo_1.c: 213: if(bt_use){
   932  02EA  1683               	bsf	status, 5	;RP0=1, select bank1
   933  02EB  1303               	bcf	status, 6	;RP1=0, select bank1
   934  02EC  1CA0               	btfss	(_bt_use/8)^080h,(_bt_use)&7
   935  02ED  2AEF               	goto	u3451
   936  02EE  2AF0               	goto	u3450
   937  02EF                     u3451:
   938  02EF  2AD2               	goto	l4038
   939  02F0                     u3450:
   940                           	line	214
   941                           	
   942  02F0                     l4048:	
   943                           ;Dispositivo_1.c: 214: protocol_bt();
   944  02F0  118A  255D  118A   	fcall	_protocol_bt
   945                           	line	215
   946                           	
   947  02F3                     l4050:	
   948                           ;Dispositivo_1.c: 215: dado_tx=dado_rx0;
   949  02F3  1283               	bcf	status, 5	;RP0=0, select bank0
   950  02F4  1303               	bcf	status, 6	;RP1=0, select bank0
   951  02F5  0840               	movf	(_dado_rx0),w
   952  02F6  00BB               	movwf	(??_main+0)+0
   953  02F7  083B               	movf	(??_main+0)+0,w
   954  02F8  00C1               	movwf	(_dado_tx)
   955                           	line	216
   956                           	
   957  02F9                     l4052:	
   958                           ;Dispositivo_1.c: 216: dado_rx0=0;
   959  02F9  01C0               	clrf	(_dado_rx0)
   960                           	line	217
   961                           	
   962  02FA                     l4054:	
   963                           ;Dispositivo_1.c: 217: bt_use=0;
   964  02FA  1683               	bsf	status, 5	;RP0=1, select bank1
   965  02FB  1303               	bcf	status, 6	;RP1=0, select bank1
   966  02FC  10A0               	bcf	(_bt_use/8)^080h,(_bt_use)&7
   967  02FD  2AD2               	goto	l4038
   968                           	line	218
   969                           	
   970  02FE                     l1050:	
   971  02FE  2AD2               	goto	l4038
   972                           	line	219
   973                           	
   974  02FF                     l1051:	
   975                           	line	204
   976  02FF  2AD2               	goto	l4038
   977                           	
   978  0300                     l1052:	
   979                           	line	220
   980                           	
   981  0300                     l1053:	
   982                           	global	start
   983  0300  118A  2811         	ljmp	start
   984                           	opt stack 0
   985                           GLOBAL	__end_of_main
   986  0302                     	__end_of_main:
   987 ;; =============== function _main ends ============
   988                           
   989                           	signat	_main,88
   990                           	global	_lcd_init
   991                           psect	text595,local,class=CODE,delta=2
   992                           global __ptext595
   993  0302                     __ptext595:
   994                           
   995 ;; *************** function _lcd_init *****************
   996 ;; Defined at:
   997 ;;		line 87 in file "D:\Dropbox\TC - 2015\Pesquisas\PIC\5 - Protocolo completo (envio 2x)\LCD_Claudio.c"
   998 ;; Parameters:    Size  Location     Type
   999 ;;		None
  1000 ;; Auto vars:     Size  Location     Type
  1001 ;;		None
  1002 ;; Return value:  Size  Location     Type
  1003 ;;		None               void
  1004 ;; Registers used:
  1005 ;;		wreg, status,2, status,0, pclath, cstack
  1006 ;; Tracked objects:
  1007 ;;		On entry : 0/0
  1008 ;;		On exit  : 0/0
  1009 ;;		Unchanged: 0/0
  1010 ;; Data sizes:     COMMON   BANK0   BANK1   BANK2
  1011 ;;      Params:         0       0       0       0
  1012 ;;      Locals:         0       0       0       0
  1013 ;;      Temps:          0       2       0       0
  1014 ;;      Totals:         0       2       0       0
  1015 ;;Total ram usage:        2 bytes
  1016 ;; Hardware stack levels used:    1
  1017 ;; Hardware stack levels required when called:   10
  1018 ;; This function calls:
  1019 ;;		_Enable
  1020 ;;		_Write
  1021 ;;		_Clear
  1022 ;; This function is called by:
  1023 ;;		_main
  1024 ;; This function uses a non-reentrant model
  1025 ;;
  1026                           psect	text595
  1027                           	file	"D:\Dropbox\TC - 2015\Pesquisas\PIC\5 - Protocolo completo (envio 2x)\LCD_Claudio.
                                 c"
  1028                           	line	87
  1029                           	global	__size_of_lcd_init
  1030  0055                     	__size_of_lcd_init	equ	__end_of_lcd_init-_lcd_init
  1031                           	
  1032  0302                     _lcd_init:	
  1033 ;; hardware stack exceeded
  1034                           	opt	stack 0
  1035                           ; Regs used in _lcd_init: [wreg+status,2+status,0+pclath+cstack]
  1036                           	line	88
  1037                           	
  1038  0302                     l3982:	
  1039                           ;LCD_Claudio.c: 88: _delay((unsigned long)((15)*(4000000/4000.0)));
  1040                           	opt asmopt_off
  1041  0302  3014               movlw	20
  1042  0303  1283               	bcf	status, 5	;RP0=0, select bank0
  1043  0304  1303               	bcf	status, 6	;RP1=0, select bank0
  1044  0305  00BA               movwf	((??_lcd_init+0)+0+1),f
  1045  0306  3079               	movlw	121
  1046  0307  00B9               movwf	((??_lcd_init+0)+0),f
  1047  0308                     u3477:
  1048  0308  0BB9               	decfsz	((??_lcd_init+0)+0),f
  1049  0309  2B08               	goto	u3477
  1050  030A  0BBA               	decfsz	((??_lcd_init+0)+0+1),f
  1051  030B  2B08               	goto	u3477
  1052  030C  2B0D               	nop2
  1053                           opt asmopt_on
  1054                           
  1055                           	line	89
  1056                           	
  1057  030D                     l3984:	
  1058                           ;LCD_Claudio.c: 89: PORTC&=0xF0;
  1059  030D  30F0               	movlw	(0F0h)
  1060  030E  1283               	bcf	status, 5	;RP0=0, select bank0
  1061  030F  1303               	bcf	status, 6	;RP1=0, select bank0
  1062  0310  00B9               	movwf	(??_lcd_init+0)+0
  1063  0311  0839               	movf	(??_lcd_init+0)+0,w
  1064  0312  0587               	andwf	(7),f	;volatile
  1065                           	line	90
  1066                           	
  1067  0313                     l3986:	
  1068                           ;LCD_Claudio.c: 90: PORTC|=0X03;
  1069  0313  3003               	movlw	(03h)
  1070  0314  00B9               	movwf	(??_lcd_init+0)+0
  1071  0315  0839               	movf	(??_lcd_init+0)+0,w
  1072  0316  0487               	iorwf	(7),f	;volatile
  1073                           	line	91
  1074                           	
  1075  0317                     l3988:	
  1076                           ;LCD_Claudio.c: 91: Enable();
  1077  0317  118A  2613  118A   	fcall	_Enable
  1078                           	line	92
  1079                           	
  1080  031A                     l3990:	
  1081                           ;LCD_Claudio.c: 92: _delay((unsigned long)((5)*(4000000/4000.0)));
  1082                           	opt asmopt_off
  1083  031A  3007               movlw	7
  1084  031B  1283               	bcf	status, 5	;RP0=0, select bank0
  1085  031C  1303               	bcf	status, 6	;RP1=0, select bank0
  1086  031D  00BA               movwf	((??_lcd_init+0)+0+1),f
  1087  031E  307D               	movlw	125
  1088  031F  00B9               movwf	((??_lcd_init+0)+0),f
  1089  0320                     u3487:
  1090  0320  0BB9               	decfsz	((??_lcd_init+0)+0),f
  1091  0321  2B20               	goto	u3487
  1092  0322  0BBA               	decfsz	((??_lcd_init+0)+0+1),f
  1093  0323  2B20               	goto	u3487
  1094                           opt asmopt_on
  1095                           
  1096                           	line	93
  1097                           	
  1098  0324                     l3992:	
  1099                           ;LCD_Claudio.c: 93: PORTC&=0xF0;
  1100  0324  30F0               	movlw	(0F0h)
  1101  0325  1283               	bcf	status, 5	;RP0=0, select bank0
  1102  0326  1303               	bcf	status, 6	;RP1=0, select bank0
  1103  0327  00B9               	movwf	(??_lcd_init+0)+0
  1104  0328  0839               	movf	(??_lcd_init+0)+0,w
  1105  0329  0587               	andwf	(7),f	;volatile
  1106                           	line	94
  1107                           	
  1108  032A                     l3994:	
  1109                           ;LCD_Claudio.c: 94: PORTC|=0X03;
  1110  032A  3003               	movlw	(03h)
  1111  032B  00B9               	movwf	(??_lcd_init+0)+0
  1112  032C  0839               	movf	(??_lcd_init+0)+0,w
  1113  032D  0487               	iorwf	(7),f	;volatile
  1114                           	line	95
  1115                           ;LCD_Claudio.c: 95: Enable();
  1116  032E  118A  2613  118A   	fcall	_Enable
  1117                           	line	96
  1118                           	
  1119  0331                     l3996:	
  1120                           ;LCD_Claudio.c: 96: _delay((unsigned long)((100)*(4000000/4000000.0)));
  1121                           	opt asmopt_off
  1122  0331  3021               movlw	33
  1123  0332  1283               	bcf	status, 5	;RP0=0, select bank0
  1124  0333  1303               	bcf	status, 6	;RP1=0, select bank0
  1125  0334  00B9               movwf	(??_lcd_init+0)+0,f
  1126  0335                     u3497:
  1127  0335  0BB9               decfsz	(??_lcd_init+0)+0,f
  1128  0336  2B35               	goto	u3497
  1129                           opt asmopt_on
  1130                           
  1131                           	line	97
  1132                           	
  1133  0337                     l3998:	
  1134                           ;LCD_Claudio.c: 97: PORTC&=0xF0;
  1135  0337  30F0               	movlw	(0F0h)
  1136  0338  1283               	bcf	status, 5	;RP0=0, select bank0
  1137  0339  1303               	bcf	status, 6	;RP1=0, select bank0
  1138  033A  00B9               	movwf	(??_lcd_init+0)+0
  1139  033B  0839               	movf	(??_lcd_init+0)+0,w
  1140  033C  0587               	andwf	(7),f	;volatile
  1141                           	line	98
  1142                           	
  1143  033D                     l4000:	
  1144                           ;LCD_Claudio.c: 98: PORTC|=0X02;
  1145  033D  1487               	bsf	(7)+(1/8),(1)&7	;volatile
  1146                           	line	99
  1147                           	
  1148  033E                     l4002:	
  1149                           ;LCD_Claudio.c: 99: Enable();
  1150  033E  118A  2613  118A   	fcall	_Enable
  1151                           	line	100
  1152                           	
  1153  0341                     l4004:	
  1154                           ;LCD_Claudio.c: 100: _delay((unsigned long)((40)*(4000000/4000000.0)));
  1155                           	opt asmopt_off
  1156  0341  300D               movlw	13
  1157  0342  1283               	bcf	status, 5	;RP0=0, select bank0
  1158  0343  1303               	bcf	status, 6	;RP1=0, select bank0
  1159  0344  00B9               movwf	(??_lcd_init+0)+0,f
  1160  0345                     u3507:
  1161  0345  0BB9               decfsz	(??_lcd_init+0)+0,f
  1162  0346  2B45               	goto	u3507
  1163                           opt asmopt_on
  1164                           
  1165                           	line	101
  1166                           	
  1167  0347                     l4006:	
  1168                           ;LCD_Claudio.c: 101: Write(0x28);
  1169  0347  3028               	movlw	(028h)
  1170  0348  118A  24BD  118A   	fcall	_Write
  1171                           	line	102
  1172                           	
  1173  034B                     l4008:	
  1174                           ;LCD_Claudio.c: 102: Write(0x0D);
  1175  034B  300D               	movlw	(0Dh)
  1176  034C  118A  24BD  118A   	fcall	_Write
  1177                           	line	103
  1178                           	
  1179  034F                     l4010:	
  1180                           ;LCD_Claudio.c: 103: Write(0x06);
  1181  034F  3006               	movlw	(06h)
  1182  0350  118A  24BD  118A   	fcall	_Write
  1183                           	line	104
  1184                           	
  1185  0353                     l4012:	
  1186                           ;LCD_Claudio.c: 104: Clear();
  1187  0353  118A  25A6  118A   	fcall	_Clear
  1188                           	line	105
  1189                           	
  1190  0356                     l960:	
  1191  0356  0008               	return
  1192                           	opt stack 0
  1193                           GLOBAL	__end_of_lcd_init
  1194  0357                     	__end_of_lcd_init:
  1195 ;; =============== function _lcd_init ends ============
  1196                           
  1197                           	signat	_lcd_init,88
  1198                           	global	_Clear
  1199                           psect	text596,local,class=CODE,delta=2
  1200                           global __ptext596
  1201  05A6                     __ptext596:
  1202                           
  1203 ;; *************** function _Clear *****************
  1204 ;; Defined at:
  1205 ;;		line 38 in file "D:\Dropbox\TC - 2015\Pesquisas\PIC\5 - Protocolo completo (envio 2x)\LCD_Claudio.c"
  1206 ;; Parameters:    Size  Location     Type
  1207 ;;		None
  1208 ;; Auto vars:     Size  Location     Type
  1209 ;;		None
  1210 ;; Return value:  Size  Location     Type
  1211 ;;		None               void
  1212 ;; Registers used:
  1213 ;;		wreg, status,2, status,0, pclath, cstack
  1214 ;; Tracked objects:
  1215 ;;		On entry : 0/0
  1216 ;;		On exit  : 0/0
  1217 ;;		Unchanged: 0/0
  1218 ;; Data sizes:     COMMON   BANK0   BANK1   BANK2
  1219 ;;      Params:         0       0       0       0
  1220 ;;      Locals:         0       0       0       0
  1221 ;;      Temps:          0       2       0       0
  1222 ;;      Totals:         0       2       0       0
  1223 ;;Total ram usage:        2 bytes
  1224 ;; Hardware stack levels used:    1
  1225 ;; Hardware stack levels required when called:    9
  1226 ;; This function calls:
  1227 ;;		_Write
  1228 ;; This function is called by:
  1229 ;;		_lcd_init
  1230 ;; This function uses a non-reentrant model
  1231 ;;
  1232                           psect	text596
  1233                           	file	"D:\Dropbox\TC - 2015\Pesquisas\PIC\5 - Protocolo completo (envio 2x)\LCD_Claudio.
                                 c"
  1234                           	line	38
  1235                           	global	__size_of_Clear
  1236  0013                     	__size_of_Clear	equ	__end_of_Clear-_Clear
  1237                           	
  1238  05A6                     _Clear:	
  1239 ;; hardware stack exceeded
  1240                           	opt	stack 0
  1241                           ; Regs used in _Clear: [wreg+status,2+status,0+pclath+cstack]
  1242                           	line	39
  1243                           	
  1244  05A6                     l3976:	
  1245                           ;LCD_Claudio.c: 39: RC6 = 0;
  1246  05A6  1283               	bcf	status, 5	;RP0=0, select bank0
  1247  05A7  1303               	bcf	status, 6	;RP1=0, select bank0
  1248  05A8  1307               	bcf	(62/8),(62)&7
  1249                           	line	40
  1250                           	
  1251  05A9                     l3978:	
  1252                           ;LCD_Claudio.c: 40: Write(0x01);
  1253  05A9  3001               	movlw	(01h)
  1254  05AA  118A  24BD  118A   	fcall	_Write
  1255                           	line	41
  1256                           	
  1257  05AD                     l3980:	
  1258                           ;LCD_Claudio.c: 41: _delay((unsigned long)((2)*(4000000/4000.0)));
  1259                           	opt asmopt_off
  1260  05AD  3003               movlw	3
  1261  05AE  1283               	bcf	status, 5	;RP0=0, select bank0
  1262  05AF  1303               	bcf	status, 6	;RP1=0, select bank0
  1263  05B0  00B8               movwf	((??_Clear+0)+0+1),f
  1264  05B1  3097               	movlw	151
  1265  05B2  00B7               movwf	((??_Clear+0)+0),f
  1266  05B3                     u3517:
  1267  05B3  0BB7               	decfsz	((??_Clear+0)+0),f
  1268  05B4  2DB3               	goto	u3517
  1269  05B5  0BB8               	decfsz	((??_Clear+0)+0+1),f
  1270  05B6  2DB3               	goto	u3517
  1271  05B7  2DB8               	nop2
  1272                           opt asmopt_on
  1273                           
  1274                           	line	42
  1275                           	
  1276  05B8                     l937:	
  1277  05B8  0008               	return
  1278                           	opt stack 0
  1279                           GLOBAL	__end_of_Clear
  1280  05B9                     	__end_of_Clear:
  1281 ;; =============== function _Clear ends ============
  1282                           
  1283                           	signat	_Clear,88
  1284                           	global	_send
  1285                           psect	text597,local,class=CODE,delta=2
  1286                           global __ptext597
  1287  0013                     __ptext597:
  1288                           
  1289 ;; *************** function _send *****************
  1290 ;; Defined at:
  1291 ;;		line 94 in file "D:\Dropbox\TC - 2015\Pesquisas\PIC\5 - Protocolo completo (envio 2x)\Dispositivo_1.c"
  1292 ;; Parameters:    Size  Location     Type
  1293 ;;		None
  1294 ;; Auto vars:     Size  Location     Type
  1295 ;;		None
  1296 ;; Return value:  Size  Location     Type
  1297 ;;		None               void
  1298 ;; Registers used:
  1299 ;;		wreg, fsr0l, fsr0h, status,2, status,0, pclath, cstack
  1300 ;; Tracked objects:
  1301 ;;		On entry : 0/0
  1302 ;;		On exit  : 0/0
  1303 ;;		Unchanged: 0/0
  1304 ;; Data sizes:     COMMON   BANK0   BANK1   BANK2
  1305 ;;      Params:         0       0       0       0
  1306 ;;      Locals:         0       0       0       0
  1307 ;;      Temps:          0       1       0       0
  1308 ;;      Totals:         0       1       0       0
  1309 ;;Total ram usage:        1 bytes
  1310 ;; Hardware stack levels used:    1
  1311 ;; Hardware stack levels required when called:    8
  1312 ;; This function calls:
  1313 ;;		_scode
  1314 ;;		_test_bit
  1315 ;;		_end_cycle
  1316 ;; This function is called by:
  1317 ;;		_main
  1318 ;; This function uses a non-reentrant model
  1319 ;;
  1320                           psect	text597
  1321                           	file	"D:\Dropbox\TC - 2015\Pesquisas\PIC\5 - Protocolo completo (envio 2x)\Dispositivo_
                                 1.c"
  1322                           	line	94
  1323                           	global	__size_of_send
  1324  01B9                     	__size_of_send	equ	__end_of_send-_send
  1325                           	
  1326  0013                     _send:	
  1327 ;; hardware stack exceeded
  1328                           	opt	stack 0
  1329                           ; Regs used in _send: [wreg-fsr0h+status,2+status,0+pclath+cstack]
  1330                           	line	95
  1331                           	
  1332  0013                     l3880:	
  1333                           ;Dispositivo_1.c: 95: switch(cycle){
  1334  0013  29BA               	goto	l3970
  1335                           	line	96
  1336                           ;Dispositivo_1.c: 96: case 0: scode(); break;
  1337                           	
  1338  0014                     l995:	
  1339                           	
  1340  0014                     l3882:	
  1341  0014  118A  253C  118A   	fcall	_scode
  1342  0017  29C8               	goto	l996
  1343                           	line	97
  1344                           ;Dispositivo_1.c: 97: case 1: scode(); break;
  1345                           	
  1346  0018                     l997:	
  1347                           	
  1348  0018                     l3884:	
  1349  0018  118A  253C  118A   	fcall	_scode
  1350  001B  29C8               	goto	l996
  1351                           	line	98
  1352                           ;Dispositivo_1.c: 98: case 2: scode(); break;
  1353                           	
  1354  001C                     l998:	
  1355                           	
  1356  001C                     l3886:	
  1357  001C  118A  253C  118A   	fcall	_scode
  1358  001F  29C8               	goto	l996
  1359                           	line	99
  1360                           ;Dispositivo_1.c: 99: case 3: scode(); break;
  1361                           	
  1362  0020                     l999:	
  1363                           	
  1364  0020                     l3888:	
  1365  0020  118A  253C  118A   	fcall	_scode
  1366  0023  29C8               	goto	l996
  1367                           	line	100
  1368                           ;Dispositivo_1.c: 100: case 4: bit_tx=dado_tx>>7; test_bit(); break;
  1369                           	
  1370  0024                     l1000:	
  1371                           	
  1372  0024                     l3890:	
  1373  0024  1283               	bcf	status, 5	;RP0=0, select bank0
  1374  0025  1303               	bcf	status, 6	;RP1=0, select bank0
  1375  0026  0841               	movf	(_dado_tx),w
  1376  0027  00B6               	movwf	(??_send+0)+0
  1377  0028  3007               	movlw	07h
  1378  0029                     u3125:
  1379  0029  1003               	clrc
  1380  002A  0CB6               	rrf	(??_send+0)+0,f
  1381  002B  3EFF               	addlw	-1
  1382  002C  1D03               	skipz
  1383  002D  2829               	goto	u3125
  1384  002E  1683               	bsf	status, 5	;RP0=1, select bank1
  1385  002F  1303               	bcf	status, 6	;RP1=0, select bank1
  1386  0030  1020               	bcf	(_bit_tx/8)^080h,(_bit_tx)&7
  1387  0031  1283               	bcf	status, 5	;RP0=0, select bank0
  1388  0032  1303               	bcf	status, 6	;RP1=0, select bank0
  1389  0033  1C36               	btfss	0+(??_send+0)+0,0
  1390  0034  2838               	goto	u3135
  1391  0035  1683               	bsf	status, 5	;RP0=1, select bank1
  1392  0036  1303               	bcf	status, 6	;RP1=0, select bank1
  1393  0037  1420               	bsf	(_bit_tx/8)^080h,(_bit_tx)&7
  1394  0038                     u3135:
  1395                           
  1396                           	
  1397  0038                     l3892:	
  1398  0038  118A  24E8  118A   	fcall	_test_bit
  1399  003B  29C8               	goto	l996
  1400                           	line	101
  1401                           ;Dispositivo_1.c: 101: case 5: bit_tx=dado_tx>>6; test_bit(); break;
  1402                           	
  1403  003C                     l1001:	
  1404                           	
  1405  003C                     l3894:	
  1406  003C  1283               	bcf	status, 5	;RP0=0, select bank0
  1407  003D  1303               	bcf	status, 6	;RP1=0, select bank0
  1408  003E  0841               	movf	(_dado_tx),w
  1409  003F  00B6               	movwf	(??_send+0)+0
  1410  0040  3006               	movlw	06h
  1411  0041                     u3145:
  1412  0041  1003               	clrc
  1413  0042  0CB6               	rrf	(??_send+0)+0,f
  1414  0043  3EFF               	addlw	-1
  1415  0044  1D03               	skipz
  1416  0045  2841               	goto	u3145
  1417  0046  1683               	bsf	status, 5	;RP0=1, select bank1
  1418  0047  1303               	bcf	status, 6	;RP1=0, select bank1
  1419  0048  1020               	bcf	(_bit_tx/8)^080h,(_bit_tx)&7
  1420  0049  1283               	bcf	status, 5	;RP0=0, select bank0
  1421  004A  1303               	bcf	status, 6	;RP1=0, select bank0
  1422  004B  1C36               	btfss	0+(??_send+0)+0,0
  1423  004C  2850               	goto	u3155
  1424  004D  1683               	bsf	status, 5	;RP0=1, select bank1
  1425  004E  1303               	bcf	status, 6	;RP1=0, select bank1
  1426  004F  1420               	bsf	(_bit_tx/8)^080h,(_bit_tx)&7
  1427  0050                     u3155:
  1428                           
  1429                           	
  1430  0050                     l3896:	
  1431  0050  118A  24E8  118A   	fcall	_test_bit
  1432  0053  29C8               	goto	l996
  1433                           	line	102
  1434                           ;Dispositivo_1.c: 102: case 6: bit_tx=dado_tx>>5; test_bit(); break;
  1435                           	
  1436  0054                     l1002:	
  1437                           	
  1438  0054                     l3898:	
  1439  0054  1283               	bcf	status, 5	;RP0=0, select bank0
  1440  0055  1303               	bcf	status, 6	;RP1=0, select bank0
  1441  0056  0841               	movf	(_dado_tx),w
  1442  0057  00B6               	movwf	(??_send+0)+0
  1443  0058  3005               	movlw	05h
  1444  0059                     u3165:
  1445  0059  1003               	clrc
  1446  005A  0CB6               	rrf	(??_send+0)+0,f
  1447  005B  3EFF               	addlw	-1
  1448  005C  1D03               	skipz
  1449  005D  2859               	goto	u3165
  1450  005E  1683               	bsf	status, 5	;RP0=1, select bank1
  1451  005F  1303               	bcf	status, 6	;RP1=0, select bank1
  1452  0060  1020               	bcf	(_bit_tx/8)^080h,(_bit_tx)&7
  1453  0061  1283               	bcf	status, 5	;RP0=0, select bank0
  1454  0062  1303               	bcf	status, 6	;RP1=0, select bank0
  1455  0063  1C36               	btfss	0+(??_send+0)+0,0
  1456  0064  2868               	goto	u3175
  1457  0065  1683               	bsf	status, 5	;RP0=1, select bank1
  1458  0066  1303               	bcf	status, 6	;RP1=0, select bank1
  1459  0067  1420               	bsf	(_bit_tx/8)^080h,(_bit_tx)&7
  1460  0068                     u3175:
  1461                           
  1462                           	
  1463  0068                     l3900:	
  1464  0068  118A  24E8  118A   	fcall	_test_bit
  1465  006B  29C8               	goto	l996
  1466                           	line	103
  1467                           ;Dispositivo_1.c: 103: case 7: bit_tx=dado_tx>>4; test_bit(); break;
  1468                           	
  1469  006C                     l1003:	
  1470                           	
  1471  006C                     l3902:	
  1472  006C  1283               	bcf	status, 5	;RP0=0, select bank0
  1473  006D  1303               	bcf	status, 6	;RP1=0, select bank0
  1474  006E  0841               	movf	(_dado_tx),w
  1475  006F  00B6               	movwf	(??_send+0)+0
  1476  0070  3004               	movlw	04h
  1477  0071                     u3185:
  1478  0071  1003               	clrc
  1479  0072  0CB6               	rrf	(??_send+0)+0,f
  1480  0073  3EFF               	addlw	-1
  1481  0074  1D03               	skipz
  1482  0075  2871               	goto	u3185
  1483  0076  1683               	bsf	status, 5	;RP0=1, select bank1
  1484  0077  1303               	bcf	status, 6	;RP1=0, select bank1
  1485  0078  1020               	bcf	(_bit_tx/8)^080h,(_bit_tx)&7
  1486  0079  1283               	bcf	status, 5	;RP0=0, select bank0
  1487  007A  1303               	bcf	status, 6	;RP1=0, select bank0
  1488  007B  1C36               	btfss	0+(??_send+0)+0,0
  1489  007C  2880               	goto	u3195
  1490  007D  1683               	bsf	status, 5	;RP0=1, select bank1
  1491  007E  1303               	bcf	status, 6	;RP1=0, select bank1
  1492  007F  1420               	bsf	(_bit_tx/8)^080h,(_bit_tx)&7
  1493  0080                     u3195:
  1494                           
  1495                           	
  1496  0080                     l3904:	
  1497  0080  118A  24E8  118A   	fcall	_test_bit
  1498  0083  29C8               	goto	l996
  1499                           	line	104
  1500                           ;Dispositivo_1.c: 104: case 8: bit_tx=dado_tx>>3; test_bit(); break;
  1501                           	
  1502  0084                     l1004:	
  1503                           	
  1504  0084                     l3906:	
  1505  0084  1283               	bcf	status, 5	;RP0=0, select bank0
  1506  0085  1303               	bcf	status, 6	;RP1=0, select bank0
  1507  0086  0841               	movf	(_dado_tx),w
  1508  0087  00B6               	movwf	(??_send+0)+0
  1509  0088  3003               	movlw	03h
  1510  0089                     u3205:
  1511  0089  1003               	clrc
  1512  008A  0CB6               	rrf	(??_send+0)+0,f
  1513  008B  3EFF               	addlw	-1
  1514  008C  1D03               	skipz
  1515  008D  2889               	goto	u3205
  1516  008E  1683               	bsf	status, 5	;RP0=1, select bank1
  1517  008F  1303               	bcf	status, 6	;RP1=0, select bank1
  1518  0090  1020               	bcf	(_bit_tx/8)^080h,(_bit_tx)&7
  1519  0091  1283               	bcf	status, 5	;RP0=0, select bank0
  1520  0092  1303               	bcf	status, 6	;RP1=0, select bank0
  1521  0093  1C36               	btfss	0+(??_send+0)+0,0
  1522  0094  2898               	goto	u3215
  1523  0095  1683               	bsf	status, 5	;RP0=1, select bank1
  1524  0096  1303               	bcf	status, 6	;RP1=0, select bank1
  1525  0097  1420               	bsf	(_bit_tx/8)^080h,(_bit_tx)&7
  1526  0098                     u3215:
  1527                           
  1528                           	
  1529  0098                     l3908:	
  1530  0098  118A  24E8  118A   	fcall	_test_bit
  1531  009B  29C8               	goto	l996
  1532                           	line	105
  1533                           ;Dispositivo_1.c: 105: case 9: bit_tx=dado_tx>>2; test_bit(); break;
  1534                           	
  1535  009C                     l1005:	
  1536                           	
  1537  009C                     l3910:	
  1538  009C  1283               	bcf	status, 5	;RP0=0, select bank0
  1539  009D  1303               	bcf	status, 6	;RP1=0, select bank0
  1540  009E  0841               	movf	(_dado_tx),w
  1541  009F  00B6               	movwf	(??_send+0)+0
  1542  00A0  3002               	movlw	02h
  1543  00A1                     u3225:
  1544  00A1  1003               	clrc
  1545  00A2  0CB6               	rrf	(??_send+0)+0,f
  1546  00A3  3EFF               	addlw	-1
  1547  00A4  1D03               	skipz
  1548  00A5  28A1               	goto	u3225
  1549  00A6  1683               	bsf	status, 5	;RP0=1, select bank1
  1550  00A7  1303               	bcf	status, 6	;RP1=0, select bank1
  1551  00A8  1020               	bcf	(_bit_tx/8)^080h,(_bit_tx)&7
  1552  00A9  1283               	bcf	status, 5	;RP0=0, select bank0
  1553  00AA  1303               	bcf	status, 6	;RP1=0, select bank0
  1554  00AB  1C36               	btfss	0+(??_send+0)+0,0
  1555  00AC  28B0               	goto	u3235
  1556  00AD  1683               	bsf	status, 5	;RP0=1, select bank1
  1557  00AE  1303               	bcf	status, 6	;RP1=0, select bank1
  1558  00AF  1420               	bsf	(_bit_tx/8)^080h,(_bit_tx)&7
  1559  00B0                     u3235:
  1560                           
  1561                           	
  1562  00B0                     l3912:	
  1563  00B0  118A  24E8  118A   	fcall	_test_bit
  1564  00B3  29C8               	goto	l996
  1565                           	line	106
  1566                           ;Dispositivo_1.c: 106: case 10: bit_tx=dado_tx>>1; test_bit(); break;
  1567                           	
  1568  00B4                     l1006:	
  1569                           	
  1570  00B4                     l3914:	
  1571  00B4  1283               	bcf	status, 5	;RP0=0, select bank0
  1572  00B5  1303               	bcf	status, 6	;RP1=0, select bank0
  1573  00B6  0841               	movf	(_dado_tx),w
  1574  00B7  00B6               	movwf	(??_send+0)+0
  1575  00B8  3001               	movlw	01h
  1576  00B9                     u3245:
  1577  00B9  1003               	clrc
  1578  00BA  0CB6               	rrf	(??_send+0)+0,f
  1579  00BB  3EFF               	addlw	-1
  1580  00BC  1D03               	skipz
  1581  00BD  28B9               	goto	u3245
  1582  00BE  1683               	bsf	status, 5	;RP0=1, select bank1
  1583  00BF  1303               	bcf	status, 6	;RP1=0, select bank1
  1584  00C0  1020               	bcf	(_bit_tx/8)^080h,(_bit_tx)&7
  1585  00C1  1283               	bcf	status, 5	;RP0=0, select bank0
  1586  00C2  1303               	bcf	status, 6	;RP1=0, select bank0
  1587  00C3  1C36               	btfss	0+(??_send+0)+0,0
  1588  00C4  28C8               	goto	u3255
  1589  00C5  1683               	bsf	status, 5	;RP0=1, select bank1
  1590  00C6  1303               	bcf	status, 6	;RP1=0, select bank1
  1591  00C7  1420               	bsf	(_bit_tx/8)^080h,(_bit_tx)&7
  1592  00C8                     u3255:
  1593                           
  1594                           	
  1595  00C8                     l3916:	
  1596  00C8  118A  24E8  118A   	fcall	_test_bit
  1597  00CB  29C8               	goto	l996
  1598                           	line	107
  1599                           ;Dispositivo_1.c: 107: case 11: bit_tx=dado_tx; test_bit(); break;
  1600                           	
  1601  00CC                     l1007:	
  1602  00CC  1683               	bsf	status, 5	;RP0=1, select bank1
  1603  00CD  1303               	bcf	status, 6	;RP1=0, select bank1
  1604  00CE  1020               	bcf	(_bit_tx/8)^080h,(_bit_tx)&7
  1605  00CF  1283               	bcf	status, 5	;RP0=0, select bank0
  1606  00D0  1303               	bcf	status, 6	;RP1=0, select bank0
  1607  00D1  1C41               	btfss	(_dado_tx),0
  1608  00D2  28D6               	goto	u3265
  1609  00D3  1683               	bsf	status, 5	;RP0=1, select bank1
  1610  00D4  1303               	bcf	status, 6	;RP1=0, select bank1
  1611  00D5  1420               	bsf	(_bit_tx/8)^080h,(_bit_tx)&7
  1612  00D6                     u3265:
  1613                           
  1614                           	
  1615  00D6                     l3918:	
  1616  00D6  118A  24E8  118A   	fcall	_test_bit
  1617  00D9  29C8               	goto	l996
  1618                           	line	108
  1619                           ;Dispositivo_1.c: 108: case 12: cycle++; break;
  1620                           	
  1621  00DA                     l1008:	
  1622                           	
  1623  00DA                     l3920:	
  1624  00DA  3001               	movlw	(01h)
  1625  00DB  1283               	bcf	status, 5	;RP0=0, select bank0
  1626  00DC  1303               	bcf	status, 6	;RP1=0, select bank0
  1627  00DD  00B6               	movwf	(??_send+0)+0
  1628  00DE  0836               	movf	(??_send+0)+0,w
  1629  00DF  07BE               	addwf	(_cycle),f
  1630  00E0  29C8               	goto	l996
  1631                           	line	109
  1632                           ;Dispositivo_1.c: 109: case 13: cycle++; break;
  1633                           	
  1634  00E1                     l1009:	
  1635                           	
  1636  00E1                     l3922:	
  1637  00E1  3001               	movlw	(01h)
  1638  00E2  00B6               	movwf	(??_send+0)+0
  1639  00E3  0836               	movf	(??_send+0)+0,w
  1640  00E4  07BE               	addwf	(_cycle),f
  1641  00E5  29C8               	goto	l996
  1642                           	line	110
  1643                           ;Dispositivo_1.c: 110: case 14: cycle++; break;
  1644                           	
  1645  00E6                     l1010:	
  1646                           	
  1647  00E6                     l3924:	
  1648  00E6  3001               	movlw	(01h)
  1649  00E7  00B6               	movwf	(??_send+0)+0
  1650  00E8  0836               	movf	(??_send+0)+0,w
  1651  00E9  07BE               	addwf	(_cycle),f
  1652  00EA  29C8               	goto	l996
  1653                           	line	111
  1654                           ;Dispositivo_1.c: 111: case 15: cycle++; break;
  1655                           	
  1656  00EB                     l1011:	
  1657                           	
  1658  00EB                     l3926:	
  1659  00EB  3001               	movlw	(01h)
  1660  00EC  00B6               	movwf	(??_send+0)+0
  1661  00ED  0836               	movf	(??_send+0)+0,w
  1662  00EE  07BE               	addwf	(_cycle),f
  1663  00EF  29C8               	goto	l996
  1664                           	line	112
  1665                           ;Dispositivo_1.c: 112: case 16: scode(); break;
  1666                           	
  1667  00F0                     l1012:	
  1668                           	
  1669  00F0                     l3928:	
  1670  00F0  118A  253C  118A   	fcall	_scode
  1671  00F3  29C8               	goto	l996
  1672                           	line	113
  1673                           ;Dispositivo_1.c: 113: case 17: scode(); break;
  1674                           	
  1675  00F4                     l1013:	
  1676                           	
  1677  00F4                     l3930:	
  1678  00F4  118A  253C  118A   	fcall	_scode
  1679  00F7  29C8               	goto	l996
  1680                           	line	114
  1681                           ;Dispositivo_1.c: 114: case 18: scode(); break;
  1682                           	
  1683  00F8                     l1014:	
  1684                           	
  1685  00F8                     l3932:	
  1686  00F8  118A  253C  118A   	fcall	_scode
  1687  00FB  29C8               	goto	l996
  1688                           	line	115
  1689                           ;Dispositivo_1.c: 115: case 19: scode(); break;
  1690                           	
  1691  00FC                     l1015:	
  1692                           	
  1693  00FC                     l3934:	
  1694  00FC  118A  253C  118A   	fcall	_scode
  1695  00FF  29C8               	goto	l996
  1696                           	line	116
  1697                           ;Dispositivo_1.c: 116: case 20: bit_tx=dado_tx>>7; test_bit(); break;
  1698                           	
  1699  0100                     l1016:	
  1700                           	
  1701  0100                     l3936:	
  1702  0100  1283               	bcf	status, 5	;RP0=0, select bank0
  1703  0101  1303               	bcf	status, 6	;RP1=0, select bank0
  1704  0102  0841               	movf	(_dado_tx),w
  1705  0103  00B6               	movwf	(??_send+0)+0
  1706  0104  3007               	movlw	07h
  1707  0105                     u3275:
  1708  0105  1003               	clrc
  1709  0106  0CB6               	rrf	(??_send+0)+0,f
  1710  0107  3EFF               	addlw	-1
  1711  0108  1D03               	skipz
  1712  0109  2905               	goto	u3275
  1713  010A  1683               	bsf	status, 5	;RP0=1, select bank1
  1714  010B  1303               	bcf	status, 6	;RP1=0, select bank1
  1715  010C  1020               	bcf	(_bit_tx/8)^080h,(_bit_tx)&7
  1716  010D  1283               	bcf	status, 5	;RP0=0, select bank0
  1717  010E  1303               	bcf	status, 6	;RP1=0, select bank0
  1718  010F  1C36               	btfss	0+(??_send+0)+0,0
  1719  0110  2914               	goto	u3285
  1720  0111  1683               	bsf	status, 5	;RP0=1, select bank1
  1721  0112  1303               	bcf	status, 6	;RP1=0, select bank1
  1722  0113  1420               	bsf	(_bit_tx/8)^080h,(_bit_tx)&7
  1723  0114                     u3285:
  1724                           
  1725                           	
  1726  0114                     l3938:	
  1727  0114  118A  24E8  118A   	fcall	_test_bit
  1728  0117  29C8               	goto	l996
  1729                           	line	117
  1730                           ;Dispositivo_1.c: 117: case 21: bit_tx=dado_tx>>6; test_bit(); break;
  1731                           	
  1732  0118                     l1017:	
  1733                           	
  1734  0118                     l3940:	
  1735  0118  1283               	bcf	status, 5	;RP0=0, select bank0
  1736  0119  1303               	bcf	status, 6	;RP1=0, select bank0
  1737  011A  0841               	movf	(_dado_tx),w
  1738  011B  00B6               	movwf	(??_send+0)+0
  1739  011C  3006               	movlw	06h
  1740  011D                     u3295:
  1741  011D  1003               	clrc
  1742  011E  0CB6               	rrf	(??_send+0)+0,f
  1743  011F  3EFF               	addlw	-1
  1744  0120  1D03               	skipz
  1745  0121  291D               	goto	u3295
  1746  0122  1683               	bsf	status, 5	;RP0=1, select bank1
  1747  0123  1303               	bcf	status, 6	;RP1=0, select bank1
  1748  0124  1020               	bcf	(_bit_tx/8)^080h,(_bit_tx)&7
  1749  0125  1283               	bcf	status, 5	;RP0=0, select bank0
  1750  0126  1303               	bcf	status, 6	;RP1=0, select bank0
  1751  0127  1C36               	btfss	0+(??_send+0)+0,0
  1752  0128  292C               	goto	u3305
  1753  0129  1683               	bsf	status, 5	;RP0=1, select bank1
  1754  012A  1303               	bcf	status, 6	;RP1=0, select bank1
  1755  012B  1420               	bsf	(_bit_tx/8)^080h,(_bit_tx)&7
  1756  012C                     u3305:
  1757                           
  1758                           	
  1759  012C                     l3942:	
  1760  012C  118A  24E8  118A   	fcall	_test_bit
  1761  012F  29C8               	goto	l996
  1762                           	line	118
  1763                           ;Dispositivo_1.c: 118: case 22: bit_tx=dado_tx>>5; test_bit(); break;
  1764                           	
  1765  0130                     l1018:	
  1766                           	
  1767  0130                     l3944:	
  1768  0130  1283               	bcf	status, 5	;RP0=0, select bank0
  1769  0131  1303               	bcf	status, 6	;RP1=0, select bank0
  1770  0132  0841               	movf	(_dado_tx),w
  1771  0133  00B6               	movwf	(??_send+0)+0
  1772  0134  3005               	movlw	05h
  1773  0135                     u3315:
  1774  0135  1003               	clrc
  1775  0136  0CB6               	rrf	(??_send+0)+0,f
  1776  0137  3EFF               	addlw	-1
  1777  0138  1D03               	skipz
  1778  0139  2935               	goto	u3315
  1779  013A  1683               	bsf	status, 5	;RP0=1, select bank1
  1780  013B  1303               	bcf	status, 6	;RP1=0, select bank1
  1781  013C  1020               	bcf	(_bit_tx/8)^080h,(_bit_tx)&7
  1782  013D  1283               	bcf	status, 5	;RP0=0, select bank0
  1783  013E  1303               	bcf	status, 6	;RP1=0, select bank0
  1784  013F  1C36               	btfss	0+(??_send+0)+0,0
  1785  0140  2944               	goto	u3325
  1786  0141  1683               	bsf	status, 5	;RP0=1, select bank1
  1787  0142  1303               	bcf	status, 6	;RP1=0, select bank1
  1788  0143  1420               	bsf	(_bit_tx/8)^080h,(_bit_tx)&7
  1789  0144                     u3325:
  1790                           
  1791                           	
  1792  0144                     l3946:	
  1793  0144  118A  24E8  118A   	fcall	_test_bit
  1794  0147  29C8               	goto	l996
  1795                           	line	119
  1796                           ;Dispositivo_1.c: 119: case 23: bit_tx=dado_tx>>4; test_bit(); break;
  1797                           	
  1798  0148                     l1019:	
  1799                           	
  1800  0148                     l3948:	
  1801  0148  1283               	bcf	status, 5	;RP0=0, select bank0
  1802  0149  1303               	bcf	status, 6	;RP1=0, select bank0
  1803  014A  0841               	movf	(_dado_tx),w
  1804  014B  00B6               	movwf	(??_send+0)+0
  1805  014C  3004               	movlw	04h
  1806  014D                     u3335:
  1807  014D  1003               	clrc
  1808  014E  0CB6               	rrf	(??_send+0)+0,f
  1809  014F  3EFF               	addlw	-1
  1810  0150  1D03               	skipz
  1811  0151  294D               	goto	u3335
  1812  0152  1683               	bsf	status, 5	;RP0=1, select bank1
  1813  0153  1303               	bcf	status, 6	;RP1=0, select bank1
  1814  0154  1020               	bcf	(_bit_tx/8)^080h,(_bit_tx)&7
  1815  0155  1283               	bcf	status, 5	;RP0=0, select bank0
  1816  0156  1303               	bcf	status, 6	;RP1=0, select bank0
  1817  0157  1C36               	btfss	0+(??_send+0)+0,0
  1818  0158  295C               	goto	u3345
  1819  0159  1683               	bsf	status, 5	;RP0=1, select bank1
  1820  015A  1303               	bcf	status, 6	;RP1=0, select bank1
  1821  015B  1420               	bsf	(_bit_tx/8)^080h,(_bit_tx)&7
  1822  015C                     u3345:
  1823                           
  1824                           	
  1825  015C                     l3950:	
  1826  015C  118A  24E8  118A   	fcall	_test_bit
  1827  015F  29C8               	goto	l996
  1828                           	line	120
  1829                           ;Dispositivo_1.c: 120: case 24: bit_tx=dado_tx>>3; test_bit(); break;
  1830                           	
  1831  0160                     l1020:	
  1832                           	
  1833  0160                     l3952:	
  1834  0160  1283               	bcf	status, 5	;RP0=0, select bank0
  1835  0161  1303               	bcf	status, 6	;RP1=0, select bank0
  1836  0162  0841               	movf	(_dado_tx),w
  1837  0163  00B6               	movwf	(??_send+0)+0
  1838  0164  3003               	movlw	03h
  1839  0165                     u3355:
  1840  0165  1003               	clrc
  1841  0166  0CB6               	rrf	(??_send+0)+0,f
  1842  0167  3EFF               	addlw	-1
  1843  0168  1D03               	skipz
  1844  0169  2965               	goto	u3355
  1845  016A  1683               	bsf	status, 5	;RP0=1, select bank1
  1846  016B  1303               	bcf	status, 6	;RP1=0, select bank1
  1847  016C  1020               	bcf	(_bit_tx/8)^080h,(_bit_tx)&7
  1848  016D  1283               	bcf	status, 5	;RP0=0, select bank0
  1849  016E  1303               	bcf	status, 6	;RP1=0, select bank0
  1850  016F  1C36               	btfss	0+(??_send+0)+0,0
  1851  0170  2974               	goto	u3365
  1852  0171  1683               	bsf	status, 5	;RP0=1, select bank1
  1853  0172  1303               	bcf	status, 6	;RP1=0, select bank1
  1854  0173  1420               	bsf	(_bit_tx/8)^080h,(_bit_tx)&7
  1855  0174                     u3365:
  1856                           
  1857                           	
  1858  0174                     l3954:	
  1859  0174  118A  24E8  118A   	fcall	_test_bit
  1860  0177  29C8               	goto	l996
  1861                           	line	121
  1862                           ;Dispositivo_1.c: 121: case 25: bit_tx=dado_tx>>2; test_bit(); break;
  1863                           	
  1864  0178                     l1021:	
  1865                           	
  1866  0178                     l3956:	
  1867  0178  1283               	bcf	status, 5	;RP0=0, select bank0
  1868  0179  1303               	bcf	status, 6	;RP1=0, select bank0
  1869  017A  0841               	movf	(_dado_tx),w
  1870  017B  00B6               	movwf	(??_send+0)+0
  1871  017C  3002               	movlw	02h
  1872  017D                     u3375:
  1873  017D  1003               	clrc
  1874  017E  0CB6               	rrf	(??_send+0)+0,f
  1875  017F  3EFF               	addlw	-1
  1876  0180  1D03               	skipz
  1877  0181  297D               	goto	u3375
  1878  0182  1683               	bsf	status, 5	;RP0=1, select bank1
  1879  0183  1303               	bcf	status, 6	;RP1=0, select bank1
  1880  0184  1020               	bcf	(_bit_tx/8)^080h,(_bit_tx)&7
  1881  0185  1283               	bcf	status, 5	;RP0=0, select bank0
  1882  0186  1303               	bcf	status, 6	;RP1=0, select bank0
  1883  0187  1C36               	btfss	0+(??_send+0)+0,0
  1884  0188  298C               	goto	u3385
  1885  0189  1683               	bsf	status, 5	;RP0=1, select bank1
  1886  018A  1303               	bcf	status, 6	;RP1=0, select bank1
  1887  018B  1420               	bsf	(_bit_tx/8)^080h,(_bit_tx)&7
  1888  018C                     u3385:
  1889                           
  1890                           	
  1891  018C                     l3958:	
  1892  018C  118A  24E8  118A   	fcall	_test_bit
  1893  018F  29C8               	goto	l996
  1894                           	line	122
  1895                           ;Dispositivo_1.c: 122: case 26: bit_tx=dado_tx>>1; test_bit(); break;
  1896                           	
  1897  0190                     l1022:	
  1898                           	
  1899  0190                     l3960:	
  1900  0190  1283               	bcf	status, 5	;RP0=0, select bank0
  1901  0191  1303               	bcf	status, 6	;RP1=0, select bank0
  1902  0192  0841               	movf	(_dado_tx),w
  1903  0193  00B6               	movwf	(??_send+0)+0
  1904  0194  3001               	movlw	01h
  1905  0195                     u3395:
  1906  0195  1003               	clrc
  1907  0196  0CB6               	rrf	(??_send+0)+0,f
  1908  0197  3EFF               	addlw	-1
  1909  0198  1D03               	skipz
  1910  0199  2995               	goto	u3395
  1911  019A  1683               	bsf	status, 5	;RP0=1, select bank1
  1912  019B  1303               	bcf	status, 6	;RP1=0, select bank1
  1913  019C  1020               	bcf	(_bit_tx/8)^080h,(_bit_tx)&7
  1914  019D  1283               	bcf	status, 5	;RP0=0, select bank0
  1915  019E  1303               	bcf	status, 6	;RP1=0, select bank0
  1916  019F  1C36               	btfss	0+(??_send+0)+0,0
  1917  01A0  29A4               	goto	u3405
  1918  01A1  1683               	bsf	status, 5	;RP0=1, select bank1
  1919  01A2  1303               	bcf	status, 6	;RP1=0, select bank1
  1920  01A3  1420               	bsf	(_bit_tx/8)^080h,(_bit_tx)&7
  1921  01A4                     u3405:
  1922                           
  1923                           	
  1924  01A4                     l3962:	
  1925  01A4  118A  24E8  118A   	fcall	_test_bit
  1926  01A7  29C8               	goto	l996
  1927                           	line	123
  1928                           ;Dispositivo_1.c: 123: case 27: bit_tx=dado_tx; test_bit(); end_cycle(); break;
  1929                           	
  1930  01A8                     l1023:	
  1931  01A8  1683               	bsf	status, 5	;RP0=1, select bank1
  1932  01A9  1303               	bcf	status, 6	;RP1=0, select bank1
  1933  01AA  1020               	bcf	(_bit_tx/8)^080h,(_bit_tx)&7
  1934  01AB  1283               	bcf	status, 5	;RP0=0, select bank0
  1935  01AC  1303               	bcf	status, 6	;RP1=0, select bank0
  1936  01AD  1C41               	btfss	(_dado_tx),0
  1937  01AE  29B2               	goto	u3415
  1938  01AF  1683               	bsf	status, 5	;RP0=1, select bank1
  1939  01B0  1303               	bcf	status, 6	;RP1=0, select bank1
  1940  01B1  1420               	bsf	(_bit_tx/8)^080h,(_bit_tx)&7
  1941  01B2                     u3415:
  1942                           
  1943                           	
  1944  01B2                     l3964:	
  1945  01B2  118A  24E8  118A   	fcall	_test_bit
  1946                           	
  1947  01B5                     l3966:	
  1948  01B5  118A  260A  118A   	fcall	_end_cycle
  1949  01B8  29C8               	goto	l996
  1950                           	line	124
  1951                           	
  1952  01B9                     l3968:	
  1953                           ;Dispositivo_1.c: 124: }
  1954  01B9  29C8               	goto	l996
  1955                           	line	95
  1956                           	
  1957  01BA                     l994:	
  1958                           	
  1959  01BA                     l3970:	
  1960  01BA  1283               	bcf	status, 5	;RP0=0, select bank0
  1961  01BB  1303               	bcf	status, 6	;RP1=0, select bank0
  1962  01BC  083E               	movf	(_cycle),w
  1963                           	; Switch size 1, requested type "space"
  1964                           ; Number of cases is 28, Range of values is 0 to 27
  1965                           ; switch strategies available:
  1966                           ; Name         Instructions Cycles
  1967                           ; direct_byte           63     7 (fixed)
  1968                           ; simple_byte           85    43 (average)
  1969                           ; jumptable            260     6 (fixed)
  1970                           ; rangetable            32     6 (fixed)
  1971                           ; spacedrange           62     9 (fixed)
  1972                           ; locatedrange          28     3 (fixed)
  1973                           ;	Chosen strategy is direct_byte
  1974                           
  1975  01BD  0084               	movwf fsr
  1976  01BE  301C               	movlw	28
  1977  01BF  0204               	subwf	fsr,w
  1978  01C0  1803               skipnc
  1979  01C1  29C8               goto l996
  1980  01C2  3004               movlw high(S4076)
  1981  01C3  008A               movwf pclath
  1982  01C4  1003               	clrc
  1983  01C5  0D04               	rlf fsr,w
  1984  01C6  3E85               	addlw low(S4076)
  1985  01C7  0082               	movwf pc
  1986                           psect	swtext1,local,class=CONST,delta=2
  1987                           global __pswtext1
  1988  0485                     __pswtext1:
  1989  0485                     S4076:
  1990  0485  118A  2814         	ljmp	l3882
  1991  0487  118A  2818         	ljmp	l3884
  1992  0489  118A  281C         	ljmp	l3886
  1993  048B  118A  2820         	ljmp	l3888
  1994  048D  118A  2824         	ljmp	l3890
  1995  048F  118A  283C         	ljmp	l3894
  1996  0491  118A  2854         	ljmp	l3898
  1997  0493  118A  286C         	ljmp	l3902
  1998  0495  118A  2884         	ljmp	l3906
  1999  0497  118A  289C         	ljmp	l3910
  2000  0499  118A  28B4         	ljmp	l3914
  2001  049B  118A  28CC         	ljmp	l1007
  2002  049D  118A  28DA         	ljmp	l3920
  2003  049F  118A  28E1         	ljmp	l3922
  2004  04A1  118A  28E6         	ljmp	l3924
  2005  04A3  118A  28EB         	ljmp	l3926
  2006  04A5  118A  28F0         	ljmp	l3928
  2007  04A7  118A  28F4         	ljmp	l3930
  2008  04A9  118A  28F8         	ljmp	l3932
  2009  04AB  118A  28FC         	ljmp	l3934
  2010  04AD  118A  2900         	ljmp	l3936
  2011  04AF  118A  2918         	ljmp	l3940
  2012  04B1  118A  2930         	ljmp	l3944
  2013  04B3  118A  2948         	ljmp	l3948
  2014  04B5  118A  2960         	ljmp	l3952
  2015  04B7  118A  2978         	ljmp	l3956
  2016  04B9  118A  2990         	ljmp	l3960
  2017  04BB  118A  29A8         	ljmp	l1023
  2018                           psect	text597
  2019                           
  2020                           	line	124
  2021                           	
  2022  01C8                     l996:	
  2023                           	line	125
  2024                           ;Dispositivo_1.c: 125: enviar=0;
  2025  01C8  1683               	bsf	status, 5	;RP0=1, select bank1
  2026  01C9  1303               	bcf	status, 6	;RP1=0, select bank1
  2027  01CA  1320               	bcf	(_enviar/8)^080h,(_enviar)&7
  2028                           	line	126
  2029                           	
  2030  01CB                     l1024:	
  2031  01CB  0008               	return
  2032                           	opt stack 0
  2033                           GLOBAL	__end_of_send
  2034  01CC                     	__end_of_send:
  2035 ;; =============== function _send ends ============
  2036                           
  2037                           	signat	_send,88
  2038                           	global	_Write
  2039                           psect	text598,local,class=CODE,delta=2
  2040                           global __ptext598
  2041  04BD                     __ptext598:
  2042                           
  2043 ;; *************** function _Write *****************
  2044 ;; Defined at:
  2045 ;;		line 28 in file "D:\Dropbox\TC - 2015\Pesquisas\PIC\5 - Protocolo completo (envio 2x)\LCD_Claudio.c"
  2046 ;; Parameters:    Size  Location     Type
  2047 ;;  c               1    wreg     unsigned char 
  2048 ;; Auto vars:     Size  Location     Type
  2049 ;;  c               1   22[BANK0 ] unsigned char 
  2050 ;; Return value:  Size  Location     Type
  2051 ;;		None               void
  2052 ;; Registers used:
  2053 ;;		wreg, status,2, status,0, pclath, cstack
  2054 ;; Tracked objects:
  2055 ;;		On entry : 0/0
  2056 ;;		On exit  : 0/0
  2057 ;;		Unchanged: 0/0
  2058 ;; Data sizes:     COMMON   BANK0   BANK1   BANK2
  2059 ;;      Params:         0       0       0       0
  2060 ;;      Locals:         0       1       0       0
  2061 ;;      Temps:          0       2       0       0
  2062 ;;      Totals:         0       3       0       0
  2063 ;;Total ram usage:        3 bytes
  2064 ;; Hardware stack levels used:    1
  2065 ;; Hardware stack levels required when called:    8
  2066 ;; This function calls:
  2067 ;;		_Enable
  2068 ;; This function is called by:
  2069 ;;		_Clear
  2070 ;;		_lcd_init
  2071 ;;		_lcd_puts
  2072 ;; This function uses a non-reentrant model
  2073 ;;
  2074                           psect	text598
  2075                           	file	"D:\Dropbox\TC - 2015\Pesquisas\PIC\5 - Protocolo completo (envio 2x)\LCD_Claudio.
                                 c"
  2076                           	line	28
  2077                           	global	__size_of_Write
  2078  002B                     	__size_of_Write	equ	__end_of_Write-_Write
  2079                           	
  2080  04BD                     _Write:	
  2081 ;; hardware stack exceeded
  2082                           	opt	stack 0
  2083                           ; Regs used in _Write: [wreg+status,2+status,0+pclath+cstack]
  2084                           ;Write@c stored from wreg
  2085  04BD  1283               	bcf	status, 5	;RP0=0, select bank0
  2086  04BE  1303               	bcf	status, 6	;RP1=0, select bank0
  2087  04BF  00B6               	movwf	(Write@c)
  2088                           	line	29
  2089                           	
  2090  04C0                     l3868:	
  2091                           ;LCD_Claudio.c: 29: PORTC&=0XF0;
  2092  04C0  30F0               	movlw	(0F0h)
  2093  04C1  00B4               	movwf	(??_Write+0)+0
  2094  04C2  0834               	movf	(??_Write+0)+0,w
  2095  04C3  0587               	andwf	(7),f	;volatile
  2096                           	line	30
  2097                           ;LCD_Claudio.c: 30: PORTC|=c >> 4;
  2098  04C4  0836               	movf	(Write@c),w
  2099  04C5  00B4               	movwf	(??_Write+0)+0
  2100  04C6  3004               	movlw	04h
  2101  04C7                     u3115:
  2102  04C7  1003               	clrc
  2103  04C8  0CB4               	rrf	(??_Write+0)+0,f
  2104  04C9  3EFF               	addlw	-1
  2105  04CA  1D03               	skipz
  2106  04CB  2CC7               	goto	u3115
  2107  04CC  0834               	movf	0+(??_Write+0)+0,w
  2108  04CD  00B5               	movwf	(??_Write+1)+0
  2109  04CE  0835               	movf	(??_Write+1)+0,w
  2110  04CF  0487               	iorwf	(7),f	;volatile
  2111                           	line	31
  2112                           	
  2113  04D0                     l3870:	
  2114                           ;LCD_Claudio.c: 31: Enable();
  2115  04D0  118A  2613  118A   	fcall	_Enable
  2116                           	line	32
  2117                           	
  2118  04D3                     l3872:	
  2119                           ;LCD_Claudio.c: 32: PORTC&=0XF0;
  2120  04D3  30F0               	movlw	(0F0h)
  2121  04D4  1283               	bcf	status, 5	;RP0=0, select bank0
  2122  04D5  1303               	bcf	status, 6	;RP1=0, select bank0
  2123  04D6  00B4               	movwf	(??_Write+0)+0
  2124  04D7  0834               	movf	(??_Write+0)+0,w
  2125  04D8  0587               	andwf	(7),f	;volatile
  2126                           	line	33
  2127                           	
  2128  04D9                     l3874:	
  2129                           ;LCD_Claudio.c: 33: PORTC|=(c & 0X0F);
  2130  04D9  0836               	movf	(Write@c),w
  2131  04DA  390F               	andlw	0Fh
  2132  04DB  00B4               	movwf	(??_Write+0)+0
  2133  04DC  0834               	movf	(??_Write+0)+0,w
  2134  04DD  0487               	iorwf	(7),f	;volatile
  2135                           	line	34
  2136                           	
  2137  04DE                     l3876:	
  2138                           ;LCD_Claudio.c: 34: Enable();
  2139  04DE  118A  2613  118A   	fcall	_Enable
  2140                           	line	35
  2141                           	
  2142  04E1                     l3878:	
  2143                           ;LCD_Claudio.c: 35: _delay((unsigned long)((40)*(4000000/4000000.0)));
  2144                           	opt asmopt_off
  2145  04E1  300D               movlw	13
  2146  04E2  1283               	bcf	status, 5	;RP0=0, select bank0
  2147  04E3  1303               	bcf	status, 6	;RP1=0, select bank0
  2148  04E4  00B4               movwf	(??_Write+0)+0,f
  2149  04E5                     u3527:
  2150  04E5  0BB4               decfsz	(??_Write+0)+0,f
  2151  04E6  2CE5               	goto	u3527
  2152                           opt asmopt_on
  2153                           
  2154                           	line	36
  2155                           	
  2156  04E7                     l934:	
  2157  04E7  0008               	return
  2158                           	opt stack 0
  2159                           GLOBAL	__end_of_Write
  2160  04E8                     	__end_of_Write:
  2161 ;; =============== function _Write ends ============
  2162                           
  2163                           	signat	_Write,4216
  2164                           	global	_test_bit
  2165                           psect	text599,local,class=CODE,delta=2
  2166                           global __ptext599
  2167  04E8                     __ptext599:
  2168                           
  2169 ;; *************** function _test_bit *****************
  2170 ;; Defined at:
  2171 ;;		line 74 in file "D:\Dropbox\TC - 2015\Pesquisas\PIC\5 - Protocolo completo (envio 2x)\Dispositivo_1.c"
  2172 ;; Parameters:    Size  Location     Type
  2173 ;;		None
  2174 ;; Auto vars:     Size  Location     Type
  2175 ;;		None
  2176 ;; Return value:  Size  Location     Type
  2177 ;;		None               void
  2178 ;; Registers used:
  2179 ;;		wreg, status,2, status,0
  2180 ;; Tracked objects:
  2181 ;;		On entry : 0/0
  2182 ;;		On exit  : 0/0
  2183 ;;		Unchanged: 0/0
  2184 ;; Data sizes:     COMMON   BANK0   BANK1   BANK2
  2185 ;;      Params:         0       0       0       0
  2186 ;;      Locals:         0       0       0       0
  2187 ;;      Temps:          0       2       0       0
  2188 ;;      Totals:         0       2       0       0
  2189 ;;Total ram usage:        2 bytes
  2190 ;; Hardware stack levels used:    1
  2191 ;; Hardware stack levels required when called:    7
  2192 ;; This function calls:
  2193 ;;		Nothing
  2194 ;; This function is called by:
  2195 ;;		_send
  2196 ;; This function uses a non-reentrant model
  2197 ;;
  2198                           psect	text599
  2199                           	file	"D:\Dropbox\TC - 2015\Pesquisas\PIC\5 - Protocolo completo (envio 2x)\Dispositivo_
                                 1.c"
  2200                           	line	74
  2201                           	global	__size_of_test_bit
  2202  002B                     	__size_of_test_bit	equ	__end_of_test_bit-_test_bit
  2203                           	
  2204  04E8                     _test_bit:	
  2205 ;; hardware stack exceeded
  2206                           	opt	stack 0
  2207                           ; Regs used in _test_bit: [wreg+status,2+status,0]
  2208                           	line	75
  2209                           	
  2210  04E8                     l3858:	
  2211                           ;Dispositivo_1.c: 75: _delay((unsigned long)((2)*(4000000/4000.0)));
  2212                           	opt asmopt_off
  2213  04E8  3003               movlw	3
  2214  04E9  1283               	bcf	status, 5	;RP0=0, select bank0
  2215  04EA  1303               	bcf	status, 6	;RP1=0, select bank0
  2216  04EB  00B5               movwf	((??_test_bit+0)+0+1),f
  2217  04EC  3097               	movlw	151
  2218  04ED  00B4               movwf	((??_test_bit+0)+0),f
  2219  04EE                     u3537:
  2220  04EE  0BB4               	decfsz	((??_test_bit+0)+0),f
  2221  04EF  2CEE               	goto	u3537
  2222  04F0  0BB5               	decfsz	((??_test_bit+0)+0+1),f
  2223  04F1  2CEE               	goto	u3537
  2224  04F2  2CF3               	nop2
  2225                           opt asmopt_on
  2226                           
  2227                           	line	76
  2228                           	
  2229  04F3                     l3860:	
  2230                           ;Dispositivo_1.c: 76: if(bit_tx){
  2231  04F3  1683               	bsf	status, 5	;RP0=1, select bank1
  2232  04F4  1303               	bcf	status, 6	;RP1=0, select bank1
  2233  04F5  1C20               	btfss	(_bit_tx/8)^080h,(_bit_tx)&7
  2234  04F6  2CF8               	goto	u3101
  2235  04F7  2CF9               	goto	u3100
  2236  04F8                     u3101:
  2237  04F8  2CFE               	goto	l3864
  2238  04F9                     u3100:
  2239                           	line	77
  2240                           	
  2241  04F9                     l3862:	
  2242                           ;Dispositivo_1.c: 77: CCPR1L=10;
  2243  04F9  300A               	movlw	(0Ah)
  2244  04FA  1283               	bcf	status, 5	;RP0=0, select bank0
  2245  04FB  1303               	bcf	status, 6	;RP1=0, select bank0
  2246  04FC  0095               	movwf	(21)	;volatile
  2247                           	line	78
  2248                           ;Dispositivo_1.c: 78: }
  2249  04FD  2D01               	goto	l987
  2250                           	line	79
  2251                           	
  2252  04FE                     l986:	
  2253                           	line	80
  2254                           	
  2255  04FE                     l3864:	
  2256                           ;Dispositivo_1.c: 79: else{
  2257                           ;Dispositivo_1.c: 80: CCPR1L=20;
  2258  04FE  3014               	movlw	(014h)
  2259  04FF  1283               	bcf	status, 5	;RP0=0, select bank0
  2260  0500  0095               	movwf	(21)	;volatile
  2261                           	line	81
  2262                           	
  2263  0501                     l987:	
  2264                           	line	82
  2265                           ;Dispositivo_1.c: 81: }
  2266                           ;Dispositivo_1.c: 82: _delay((unsigned long)((2)*(4000000/4000.0)));
  2267                           	opt asmopt_off
  2268  0501  3003               movlw	3
  2269  0502  00B5               movwf	((??_test_bit+0)+0+1),f
  2270  0503  3097               	movlw	151
  2271  0504  00B4               movwf	((??_test_bit+0)+0),f
  2272  0505                     u3547:
  2273  0505  0BB4               	decfsz	((??_test_bit+0)+0),f
  2274  0506  2D05               	goto	u3547
  2275  0507  0BB5               	decfsz	((??_test_bit+0)+0+1),f
  2276  0508  2D05               	goto	u3547
  2277  0509  2D0A               	nop2
  2278                           opt asmopt_on
  2279                           
  2280                           	line	83
  2281                           ;Dispositivo_1.c: 83: CCPR1L=20;
  2282  050A  3014               	movlw	(014h)
  2283  050B  1283               	bcf	status, 5	;RP0=0, select bank0
  2284  050C  1303               	bcf	status, 6	;RP1=0, select bank0
  2285  050D  0095               	movwf	(21)	;volatile
  2286                           	line	84
  2287                           	
  2288  050E                     l3866:	
  2289                           ;Dispositivo_1.c: 84: cycle++;
  2290  050E  3001               	movlw	(01h)
  2291  050F  00B4               	movwf	(??_test_bit+0)+0
  2292  0510  0834               	movf	(??_test_bit+0)+0,w
  2293  0511  07BE               	addwf	(_cycle),f
  2294                           	line	85
  2295                           	
  2296  0512                     l988:	
  2297  0512  0008               	return
  2298                           	opt stack 0
  2299                           GLOBAL	__end_of_test_bit
  2300  0513                     	__end_of_test_bit:
  2301 ;; =============== function _test_bit ends ============
  2302                           
  2303                           	signat	_test_bit,88
  2304                           	global	_scode
  2305                           psect	text600,local,class=CODE,delta=2
  2306                           global __ptext600
  2307  053C                     __ptext600:
  2308                           
  2309 ;; *************** function _scode *****************
  2310 ;; Defined at:
  2311 ;;		line 66 in file "D:\Dropbox\TC - 2015\Pesquisas\PIC\5 - Protocolo completo (envio 2x)\Dispositivo_1.c"
  2312 ;; Parameters:    Size  Location     Type
  2313 ;;		None
  2314 ;; Auto vars:     Size  Location     Type
  2315 ;;		None
  2316 ;; Return value:  Size  Location     Type
  2317 ;;		None               void
  2318 ;; Registers used:
  2319 ;;		wreg, status,2, status,0
  2320 ;; Tracked objects:
  2321 ;;		On entry : 0/0
  2322 ;;		On exit  : 0/0
  2323 ;;		Unchanged: 0/0
  2324 ;; Data sizes:     COMMON   BANK0   BANK1   BANK2
  2325 ;;      Params:         0       0       0       0
  2326 ;;      Locals:         0       0       0       0
  2327 ;;      Temps:          0       2       0       0
  2328 ;;      Totals:         0       2       0       0
  2329 ;;Total ram usage:        2 bytes
  2330 ;; Hardware stack levels used:    1
  2331 ;; Hardware stack levels required when called:    7
  2332 ;; This function calls:
  2333 ;;		Nothing
  2334 ;; This function is called by:
  2335 ;;		_send
  2336 ;; This function uses a non-reentrant model
  2337 ;;
  2338                           psect	text600
  2339                           	file	"D:\Dropbox\TC - 2015\Pesquisas\PIC\5 - Protocolo completo (envio 2x)\Dispositivo_
                                 1.c"
  2340                           	line	66
  2341                           	global	__size_of_scode
  2342  0021                     	__size_of_scode	equ	__end_of_scode-_scode
  2343                           	
  2344  053C                     _scode:	
  2345 ;; hardware stack exceeded
  2346                           	opt	stack 0
  2347                           ; Regs used in _scode: [wreg+status,2+status,0]
  2348                           	line	67
  2349                           	
  2350  053C                     l3854:	
  2351                           ;Dispositivo_1.c: 67: _delay((unsigned long)((2)*(4000000/4000.0)));
  2352                           	opt asmopt_off
  2353  053C  3003               movlw	3
  2354  053D  1283               	bcf	status, 5	;RP0=0, select bank0
  2355  053E  1303               	bcf	status, 6	;RP1=0, select bank0
  2356  053F  00B5               movwf	((??_scode+0)+0+1),f
  2357  0540  3097               	movlw	151
  2358  0541  00B4               movwf	((??_scode+0)+0),f
  2359  0542                     u3557:
  2360  0542  0BB4               	decfsz	((??_scode+0)+0),f
  2361  0543  2D42               	goto	u3557
  2362  0544  0BB5               	decfsz	((??_scode+0)+0+1),f
  2363  0545  2D42               	goto	u3557
  2364  0546  2D47               	nop2
  2365                           opt asmopt_on
  2366                           
  2367                           	line	68
  2368                           ;Dispositivo_1.c: 68: CCPR1L=10;
  2369  0547  300A               	movlw	(0Ah)
  2370  0548  1283               	bcf	status, 5	;RP0=0, select bank0
  2371  0549  1303               	bcf	status, 6	;RP1=0, select bank0
  2372  054A  0095               	movwf	(21)	;volatile
  2373                           	line	69
  2374                           ;Dispositivo_1.c: 69: _delay((unsigned long)((2)*(4000000/4000.0)));
  2375                           	opt asmopt_off
  2376  054B  3003               movlw	3
  2377  054C  00B5               movwf	((??_scode+0)+0+1),f
  2378  054D  3097               	movlw	151
  2379  054E  00B4               movwf	((??_scode+0)+0),f
  2380  054F                     u3567:
  2381  054F  0BB4               	decfsz	((??_scode+0)+0),f
  2382  0550  2D4F               	goto	u3567
  2383  0551  0BB5               	decfsz	((??_scode+0)+0+1),f
  2384  0552  2D4F               	goto	u3567
  2385  0553  2D54               	nop2
  2386                           opt asmopt_on
  2387                           
  2388                           	line	70
  2389                           ;Dispositivo_1.c: 70: CCPR1L=20;
  2390  0554  3014               	movlw	(014h)
  2391  0555  1283               	bcf	status, 5	;RP0=0, select bank0
  2392  0556  1303               	bcf	status, 6	;RP1=0, select bank0
  2393  0557  0095               	movwf	(21)	;volatile
  2394                           	line	71
  2395                           	
  2396  0558                     l3856:	
  2397                           ;Dispositivo_1.c: 71: cycle++;
  2398  0558  3001               	movlw	(01h)
  2399  0559  00B4               	movwf	(??_scode+0)+0
  2400  055A  0834               	movf	(??_scode+0)+0,w
  2401  055B  07BE               	addwf	(_cycle),f
  2402                           	line	72
  2403                           	
  2404  055C                     l983:	
  2405  055C  0008               	return
  2406                           	opt stack 0
  2407                           GLOBAL	__end_of_scode
  2408  055D                     	__end_of_scode:
  2409 ;; =============== function _scode ends ============
  2410                           
  2411                           	signat	_scode,88
  2412                           	global	_protocol_bt
  2413                           psect	text601,local,class=CODE,delta=2
  2414                           global __ptext601
  2415  055D                     __ptext601:
  2416                           
  2417 ;; *************** function _protocol_bt *****************
  2418 ;; Defined at:
  2419 ;;		line 46 in file "D:\Dropbox\TC - 2015\Pesquisas\PIC\5 - Protocolo completo (envio 2x)\Dispositivo_1.c"
  2420 ;; Parameters:    Size  Location     Type
  2421 ;;		None
  2422 ;; Auto vars:     Size  Location     Type
  2423 ;;		None
  2424 ;; Return value:  Size  Location     Type
  2425 ;;		None               void
  2426 ;; Registers used:
  2427 ;;		wreg, status,2, status,0, pclath, cstack
  2428 ;; Tracked objects:
  2429 ;;		On entry : 0/0
  2430 ;;		On exit  : 0/0
  2431 ;;		Unchanged: 0/0
  2432 ;; Data sizes:     COMMON   BANK0   BANK1   BANK2
  2433 ;;      Params:         0       0       0       0
  2434 ;;      Locals:         0       0       0       0
  2435 ;;      Temps:          0       1       0       0
  2436 ;;      Totals:         0       1       0       0
  2437 ;;Total ram usage:        1 bytes
  2438 ;; Hardware stack levels used:    1
  2439 ;; Hardware stack levels required when called:    8
  2440 ;; This function calls:
  2441 ;;		_acao_bt
  2442 ;; This function is called by:
  2443 ;;		_main
  2444 ;; This function uses a non-reentrant model
  2445 ;;
  2446                           psect	text601
  2447                           	file	"D:\Dropbox\TC - 2015\Pesquisas\PIC\5 - Protocolo completo (envio 2x)\Dispositivo_
                                 1.c"
  2448                           	line	46
  2449                           	global	__size_of_protocol_bt
  2450  001E                     	__size_of_protocol_bt	equ	__end_of_protocol_bt-_protocol_bt
  2451                           	
  2452  055D                     _protocol_bt:	
  2453 ;; hardware stack exceeded
  2454                           	opt	stack 0
  2455                           ; Regs used in _protocol_bt: [wreg+status,2+status,0+pclath+cstack]
  2456                           	line	47
  2457                           	
  2458  055D                     l3846:	
  2459                           ;Dispositivo_1.c: 47: if(dado_rx0>=128){
  2460  055D  3080               	movlw	(080h)
  2461  055E  1283               	bcf	status, 5	;RP0=0, select bank0
  2462  055F  1303               	bcf	status, 6	;RP1=0, select bank0
  2463  0560  0240               	subwf	(_dado_rx0),w
  2464  0561  1C03               	skipc
  2465  0562  2D64               	goto	u3081
  2466  0563  2D65               	goto	u3080
  2467  0564                     u3081:
  2468  0564  2D69               	goto	l3850
  2469  0565                     u3080:
  2470                           	line	48
  2471                           	
  2472  0565                     l3848:	
  2473                           ;Dispositivo_1.c: 48: acao_bt();
  2474  0565  118A  25F5  118A   	fcall	_acao_bt
  2475                           	line	49
  2476                           ;Dispositivo_1.c: 49: }
  2477  0568  2D7A               	goto	l974
  2478                           	line	50
  2479                           	
  2480  0569                     l971:	
  2481                           	
  2482  0569                     l3850:	
  2483                           ;Dispositivo_1.c: 50: else if(((dado_rx0&0b01111110)>>1)==10){
  2484  0569  1283               	bcf	status, 5	;RP0=0, select bank0
  2485  056A  1303               	bcf	status, 6	;RP1=0, select bank0
  2486  056B  0840               	movf	(_dado_rx0),w
  2487  056C  00B4               	movwf	(??_protocol_bt+0)+0
  2488  056D  1003               	clrc
  2489  056E  0C34               	rrf	(??_protocol_bt+0)+0,w
  2490  056F  393F               	andlw	03Fh
  2491  0570  3A0A               	xorlw	0Ah
  2492  0571  1D03               	skipz
  2493  0572  2D74               	goto	u3091
  2494  0573  2D75               	goto	u3090
  2495  0574                     u3091:
  2496  0574  2D7A               	goto	l974
  2497  0575                     u3090:
  2498                           	line	51
  2499                           	
  2500  0575                     l3852:	
  2501                           ;Dispositivo_1.c: 51: acao_bt();
  2502  0575  118A  25F5  118A   	fcall	_acao_bt
  2503  0578  2D7A               	goto	l974
  2504                           	line	52
  2505                           	
  2506  0579                     l973:	
  2507  0579  2D7A               	goto	l974
  2508                           	line	53
  2509                           	
  2510  057A                     l972:	
  2511                           	
  2512  057A                     l974:	
  2513  057A  0008               	return
  2514                           	opt stack 0
  2515                           GLOBAL	__end_of_protocol_bt
  2516  057B                     	__end_of_protocol_bt:
  2517 ;; =============== function _protocol_bt ends ============
  2518                           
  2519                           	signat	_protocol_bt,88
  2520                           	global	_Enable
  2521                           psect	text602,local,class=CODE,delta=2
  2522                           global __ptext602
  2523  0613                     __ptext602:
  2524                           
  2525 ;; *************** function _Enable *****************
  2526 ;; Defined at:
  2527 ;;		line 22 in file "D:\Dropbox\TC - 2015\Pesquisas\PIC\5 - Protocolo completo (envio 2x)\LCD_Claudio.c"
  2528 ;; Parameters:    Size  Location     Type
  2529 ;;		None
  2530 ;; Auto vars:     Size  Location     Type
  2531 ;;		None
  2532 ;; Return value:  Size  Location     Type
  2533 ;;		None               void
  2534 ;; Registers used:
  2535 ;;		None
  2536 ;; Tracked objects:
  2537 ;;		On entry : 0/0
  2538 ;;		On exit  : 0/0
  2539 ;;		Unchanged: 0/0
  2540 ;; Data sizes:     COMMON   BANK0   BANK1   BANK2
  2541 ;;      Params:         0       0       0       0
  2542 ;;      Locals:         0       0       0       0
  2543 ;;      Temps:          0       0       0       0
  2544 ;;      Totals:         0       0       0       0
  2545 ;;Total ram usage:        0 bytes
  2546 ;; Hardware stack levels used:    1
  2547 ;; Hardware stack levels required when called:    7
  2548 ;; This function calls:
  2549 ;;		Nothing
  2550 ;; This function is called by:
  2551 ;;		_Write
  2552 ;;		_lcd_init
  2553 ;; This function uses a non-reentrant model
  2554 ;;
  2555                           psect	text602
  2556                           	file	"D:\Dropbox\TC - 2015\Pesquisas\PIC\5 - Protocolo completo (envio 2x)\LCD_Claudio.
                                 c"
  2557                           	line	22
  2558                           	global	__size_of_Enable
  2559  0008                     	__size_of_Enable	equ	__end_of_Enable-_Enable
  2560                           	
  2561  0613                     _Enable:	
  2562 ;; hardware stack exceeded
  2563                           	opt	stack 0
  2564                           ; Regs used in _Enable: []
  2565                           	line	23
  2566                           	
  2567  0613                     l3844:	
  2568                           ;LCD_Claudio.c: 23: RC7=1;
  2569  0613  1283               	bcf	status, 5	;RP0=0, select bank0
  2570  0614  1303               	bcf	status, 6	;RP1=0, select bank0
  2571  0615  1787               	bsf	(63/8),(63)&7
  2572                           	line	24
  2573                           ;LCD_Claudio.c: 24: _delay((unsigned long)((2)*(4000000/4000000.0)));
  2574                           		opt asmopt_off
  2575  0616  2E17               	nop2	;2 cycle nop
  2576                           	opt asmopt_on
  2577                           
  2578                           	line	25
  2579                           ;LCD_Claudio.c: 25: RC7=0;
  2580  0617  1283               	bcf	status, 5	;RP0=0, select bank0
  2581  0618  1303               	bcf	status, 6	;RP1=0, select bank0
  2582  0619  1387               	bcf	(63/8),(63)&7
  2583                           	line	26
  2584                           	
  2585  061A                     l931:	
  2586  061A  0008               	return
  2587                           	opt stack 0
  2588                           GLOBAL	__end_of_Enable
  2589  061B                     	__end_of_Enable:
  2590 ;; =============== function _Enable ends ============
  2591                           
  2592                           	signat	_Enable,88
  2593                           	global	_init
  2594                           psect	text603,local,class=CODE,delta=2
  2595                           global __ptext603
  2596  05E9                     __ptext603:
  2597                           
  2598 ;; *************** function _init *****************
  2599 ;; Defined at:
  2600 ;;		line 177 in file "D:\Dropbox\TC - 2015\Pesquisas\PIC\5 - Protocolo completo (envio 2x)\Dispositivo_1.c"
  2601 ;; Parameters:    Size  Location     Type
  2602 ;;		None
  2603 ;; Auto vars:     Size  Location     Type
  2604 ;;		None
  2605 ;; Return value:  Size  Location     Type
  2606 ;;		None               void
  2607 ;; Registers used:
  2608 ;;		None
  2609 ;; Tracked objects:
  2610 ;;		On entry : 0/0
  2611 ;;		On exit  : 0/0
  2612 ;;		Unchanged: 0/0
  2613 ;; Data sizes:     COMMON   BANK0   BANK1   BANK2
  2614 ;;      Params:         0       0       0       0
  2615 ;;      Locals:         0       0       0       0
  2616 ;;      Temps:          0       0       0       0
  2617 ;;      Totals:         0       0       0       0
  2618 ;;Total ram usage:        0 bytes
  2619 ;; Hardware stack levels used:    1
  2620 ;; Hardware stack levels required when called:    7
  2621 ;; This function calls:
  2622 ;;		Nothing
  2623 ;; This function is called by:
  2624 ;;		_main
  2625 ;; This function uses a non-reentrant model
  2626 ;;
  2627                           psect	text603
  2628                           	file	"D:\Dropbox\TC - 2015\Pesquisas\PIC\5 - Protocolo completo (envio 2x)\Dispositivo_
                                 1.c"
  2629                           	line	177
  2630                           	global	__size_of_init
  2631  000C                     	__size_of_init	equ	__end_of_init-_init
  2632                           	
  2633  05E9                     _init:	
  2634                           	opt	stack 0
  2635                           ; Regs used in _init: []
  2636                           	line	178
  2637                           	
  2638  05E9                     l3774:	
  2639                           ;Dispositivo_1.c: 178: bit_tx=0;
  2640  05E9  1683               	bsf	status, 5	;RP0=1, select bank1
  2641  05EA  1303               	bcf	status, 6	;RP1=0, select bank1
  2642  05EB  1020               	bcf	(_bit_tx/8)^080h,(_bit_tx)&7
  2643                           	line	179
  2644                           ;Dispositivo_1.c: 179: byte_done=0;
  2645  05EC  1120               	bcf	(_byte_done/8)^080h,(_byte_done)&7
  2646                           	line	180
  2647                           ;Dispositivo_1.c: 180: end_startcode=0;
  2648  05ED  11A0               	bcf	(_end_startcode/8)^080h,(_end_startcode)&7
  2649                           	line	181
  2650                           ;Dispositivo_1.c: 181: enviando=0;
  2651  05EE  12A0               	bcf	(_enviando/8)^080h,(_enviando)&7
  2652                           	line	182
  2653                           ;Dispositivo_1.c: 182: recebendo=0;
  2654  05EF  13A0               	bcf	(_recebendo/8)^080h,(_recebendo)&7
  2655                           	line	183
  2656                           ;Dispositivo_1.c: 183: recebeu_bit=0;
  2657  05F0  1021               	bcf	(_recebeu_bit/8)^080h,(_recebeu_bit)&7
  2658                           	line	184
  2659                           ;Dispositivo_1.c: 184: enviar=0;
  2660  05F1  1320               	bcf	(_enviar/8)^080h,(_enviar)&7
  2661                           	line	185
  2662                           ;Dispositivo_1.c: 185: start=0;
  2663  05F2  10A1               	bcf	(_start/8)^080h,(_start)&7
  2664                           	line	186
  2665                           ;Dispositivo_1.c: 186: testa=0;
  2666  05F3  1121               	bcf	(_testa/8)^080h,(_testa)&7
  2667                           	line	187
  2668                           	
  2669  05F4                     l1043:	
  2670  05F4  0008               	return
  2671                           	opt stack 0
  2672                           GLOBAL	__end_of_init
  2673  05F5                     	__end_of_init:
  2674 ;; =============== function _init ends ============
  2675                           
  2676                           	signat	_init,88
  2677                           	global	_serial_init
  2678                           psect	text604,local,class=CODE,delta=2
  2679                           global __ptext604
  2680  057B                     __ptext604:
  2681                           
  2682 ;; *************** function _serial_init *****************
  2683 ;; Defined at:
  2684 ;;		line 161 in file "D:\Dropbox\TC - 2015\Pesquisas\PIC\5 - Protocolo completo (envio 2x)\Dispositivo_1.c"
  2685 ;; Parameters:    Size  Location     Type
  2686 ;;		None
  2687 ;; Auto vars:     Size  Location     Type
  2688 ;;		None
  2689 ;; Return value:  Size  Location     Type
  2690 ;;		None               void
  2691 ;; Registers used:
  2692 ;;		wreg, status,2
  2693 ;; Tracked objects:
  2694 ;;		On entry : 0/0
  2695 ;;		On exit  : 0/0
  2696 ;;		Unchanged: 0/0
  2697 ;; Data sizes:     COMMON   BANK0   BANK1   BANK2
  2698 ;;      Params:         0       0       0       0
  2699 ;;      Locals:         0       0       0       0
  2700 ;;      Temps:          0       0       0       0
  2701 ;;      Totals:         0       0       0       0
  2702 ;;Total ram usage:        0 bytes
  2703 ;; Hardware stack levels used:    1
  2704 ;; Hardware stack levels required when called:    7
  2705 ;; This function calls:
  2706 ;;		Nothing
  2707 ;; This function is called by:
  2708 ;;		_main
  2709 ;; This function uses a non-reentrant model
  2710 ;;
  2711                           psect	text604
  2712                           	file	"D:\Dropbox\TC - 2015\Pesquisas\PIC\5 - Protocolo completo (envio 2x)\Dispositivo_
                                 1.c"
  2713                           	line	161
  2714                           	global	__size_of_serial_init
  2715  0017                     	__size_of_serial_init	equ	__end_of_serial_init-_serial_init
  2716                           	
  2717  057B                     _serial_init:	
  2718                           	opt	stack 0
  2719                           ; Regs used in _serial_init: [wreg+status,2]
  2720                           	line	162
  2721                           	
  2722  057B                     l3752:	
  2723                           ;Dispositivo_1.c: 162: SYNC=0;
  2724  057B  1683               	bsf	status, 5	;RP0=1, select bank1
  2725  057C  1303               	bcf	status, 6	;RP1=0, select bank1
  2726  057D  1218               	bcf	(1220/8)^080h,(1220)&7
  2727                           	line	163
  2728                           ;Dispositivo_1.c: 163: BRGH=1;
  2729  057E  1518               	bsf	(1218/8)^080h,(1218)&7
  2730                           	line	164
  2731                           ;Dispositivo_1.c: 164: BRG16=0;
  2732  057F  119B               	bcf	(1243/8)^080h,(1243)&7
  2733                           	line	165
  2734                           	
  2735  0580                     l3754:	
  2736                           ;Dispositivo_1.c: 165: SPBRGH=0;
  2737  0580  019A               	clrf	(154)^080h	;volatile
  2738                           	line	166
  2739                           	
  2740  0581                     l3756:	
  2741                           ;Dispositivo_1.c: 166: SPBRG=51;
  2742  0581  3033               	movlw	(033h)
  2743  0582  0099               	movwf	(153)^080h	;volatile
  2744                           	line	167
  2745                           	
  2746  0583                     l3758:	
  2747                           ;Dispositivo_1.c: 167: SPEN=1;
  2748  0583  1283               	bcf	status, 5	;RP0=0, select bank0
  2749  0584  1303               	bcf	status, 6	;RP1=0, select bank0
  2750  0585  1798               	bsf	(199/8),(199)&7
  2751                           	line	168
  2752                           	
  2753  0586                     l3760:	
  2754                           ;Dispositivo_1.c: 168: TX9=0;
  2755  0586  1683               	bsf	status, 5	;RP0=1, select bank1
  2756  0587  1303               	bcf	status, 6	;RP1=0, select bank1
  2757  0588  1318               	bcf	(1222/8)^080h,(1222)&7
  2758                           	line	169
  2759                           	
  2760  0589                     l3762:	
  2761                           ;Dispositivo_1.c: 169: TXEN=1;
  2762  0589  1698               	bsf	(1221/8)^080h,(1221)&7
  2763                           	line	170
  2764                           	
  2765  058A                     l3764:	
  2766                           ;Dispositivo_1.c: 170: TXIE=0;
  2767  058A  120C               	bcf	(1124/8)^080h,(1124)&7
  2768                           	line	171
  2769                           	
  2770  058B                     l3766:	
  2771                           ;Dispositivo_1.c: 171: RCIE=1;
  2772  058B  168C               	bsf	(1125/8)^080h,(1125)&7
  2773                           	line	172
  2774                           	
  2775  058C                     l3768:	
  2776                           ;Dispositivo_1.c: 172: PEIE=1;
  2777  058C  170B               	bsf	(94/8),(94)&7
  2778                           	line	173
  2779                           	
  2780  058D                     l3770:	
  2781                           ;Dispositivo_1.c: 173: RX9=0;
  2782  058D  1283               	bcf	status, 5	;RP0=0, select bank0
  2783  058E  1303               	bcf	status, 6	;RP1=0, select bank0
  2784  058F  1318               	bcf	(198/8),(198)&7
  2785                           	line	174
  2786                           	
  2787  0590                     l3772:	
  2788                           ;Dispositivo_1.c: 174: CREN=1;
  2789  0590  1618               	bsf	(196/8),(196)&7
  2790                           	line	175
  2791                           	
  2792  0591                     l1040:	
  2793  0591  0008               	return
  2794                           	opt stack 0
  2795                           GLOBAL	__end_of_serial_init
  2796  0592                     	__end_of_serial_init:
  2797 ;; =============== function _serial_init ends ============
  2798                           
  2799                           	signat	_serial_init,88
  2800                           	global	_T2_init
  2801                           psect	text605,local,class=CODE,delta=2
  2802                           global __ptext605
  2803  05CA                     __ptext605:
  2804                           
  2805 ;; *************** function _T2_init *****************
  2806 ;; Defined at:
  2807 ;;		line 152 in file "D:\Dropbox\TC - 2015\Pesquisas\PIC\5 - Protocolo completo (envio 2x)\Dispositivo_1.c"
  2808 ;; Parameters:    Size  Location     Type
  2809 ;;		None
  2810 ;; Auto vars:     Size  Location     Type
  2811 ;;		None
  2812 ;; Return value:  Size  Location     Type
  2813 ;;		None               void
  2814 ;; Registers used:
  2815 ;;		wreg, status,2
  2816 ;; Tracked objects:
  2817 ;;		On entry : 0/0
  2818 ;;		On exit  : 0/0
  2819 ;;		Unchanged: 0/0
  2820 ;; Data sizes:     COMMON   BANK0   BANK1   BANK2
  2821 ;;      Params:         0       0       0       0
  2822 ;;      Locals:         0       0       0       0
  2823 ;;      Temps:          0       0       0       0
  2824 ;;      Totals:         0       0       0       0
  2825 ;;Total ram usage:        0 bytes
  2826 ;; Hardware stack levels used:    1
  2827 ;; Hardware stack levels required when called:    7
  2828 ;; This function calls:
  2829 ;;		Nothing
  2830 ;; This function is called by:
  2831 ;;		_main
  2832 ;; This function uses a non-reentrant model
  2833 ;;
  2834                           psect	text605
  2835                           	file	"D:\Dropbox\TC - 2015\Pesquisas\PIC\5 - Protocolo completo (envio 2x)\Dispositivo_
                                 1.c"
  2836                           	line	152
  2837                           	global	__size_of_T2_init
  2838  0010                     	__size_of_T2_init	equ	__end_of_T2_init-_T2_init
  2839                           	
  2840  05CA                     _T2_init:	
  2841                           	opt	stack 0
  2842                           ; Regs used in _T2_init: [wreg+status,2]
  2843                           	line	153
  2844                           	
  2845  05CA                     l3742:	
  2846                           ;Dispositivo_1.c: 153: T2CON=0;
  2847  05CA  1283               	bcf	status, 5	;RP0=0, select bank0
  2848  05CB  1303               	bcf	status, 6	;RP1=0, select bank0
  2849  05CC  0192               	clrf	(18)	;volatile
  2850                           	line	154
  2851                           ;Dispositivo_1.c: 154: TMR2=0;
  2852  05CD  0191               	clrf	(17)	;volatile
  2853                           	line	155
  2854                           	
  2855  05CE                     l3744:	
  2856                           ;Dispositivo_1.c: 155: PR2=19;
  2857  05CE  3013               	movlw	(013h)
  2858  05CF  1683               	bsf	status, 5	;RP0=1, select bank1
  2859  05D0  1303               	bcf	status, 6	;RP1=0, select bank1
  2860  05D1  0092               	movwf	(146)^080h	;volatile
  2861                           	line	156
  2862                           	
  2863  05D2                     l3746:	
  2864                           ;Dispositivo_1.c: 156: CCP1CON=0b00001111;
  2865  05D2  300F               	movlw	(0Fh)
  2866  05D3  1283               	bcf	status, 5	;RP0=0, select bank0
  2867  05D4  1303               	bcf	status, 6	;RP1=0, select bank0
  2868  05D5  0097               	movwf	(23)	;volatile
  2869                           	line	157
  2870                           	
  2871  05D6                     l3748:	
  2872                           ;Dispositivo_1.c: 157: CCPR1L=20;
  2873  05D6  3014               	movlw	(014h)
  2874  05D7  0095               	movwf	(21)	;volatile
  2875                           	line	158
  2876                           	
  2877  05D8                     l3750:	
  2878                           ;Dispositivo_1.c: 158: TMR2ON=1;
  2879  05D8  1512               	bsf	(146/8),(146)&7
  2880                           	line	159
  2881                           	
  2882  05D9                     l1037:	
  2883  05D9  0008               	return
  2884                           	opt stack 0
  2885                           GLOBAL	__end_of_T2_init
  2886  05DA                     	__end_of_T2_init:
  2887 ;; =============== function _T2_init ends ============
  2888                           
  2889                           	signat	_T2_init,88
  2890                           	global	_end_cycle
  2891                           psect	text606,local,class=CODE,delta=2
  2892                           global __ptext606
  2893  060A                     __ptext606:
  2894                           
  2895 ;; *************** function _end_cycle *****************
  2896 ;; Defined at:
  2897 ;;		line 87 in file "D:\Dropbox\TC - 2015\Pesquisas\PIC\5 - Protocolo completo (envio 2x)\Dispositivo_1.c"
  2898 ;; Parameters:    Size  Location     Type
  2899 ;;		None
  2900 ;; Auto vars:     Size  Location     Type
  2901 ;;		None
  2902 ;; Return value:  Size  Location     Type
  2903 ;;		None               void
  2904 ;; Registers used:
  2905 ;;		None
  2906 ;; Tracked objects:
  2907 ;;		On entry : 0/0
  2908 ;;		On exit  : 0/0
  2909 ;;		Unchanged: 0/0
  2910 ;; Data sizes:     COMMON   BANK0   BANK1   BANK2
  2911 ;;      Params:         0       0       0       0
  2912 ;;      Locals:         0       0       0       0
  2913 ;;      Temps:          0       0       0       0
  2914 ;;      Totals:         0       0       0       0
  2915 ;;Total ram usage:        0 bytes
  2916 ;; Hardware stack levels used:    1
  2917 ;; Hardware stack levels required when called:    7
  2918 ;; This function calls:
  2919 ;;		Nothing
  2920 ;; This function is called by:
  2921 ;;		_send
  2922 ;; This function uses a non-reentrant model
  2923 ;;
  2924                           psect	text606
  2925                           	file	"D:\Dropbox\TC - 2015\Pesquisas\PIC\5 - Protocolo completo (envio 2x)\Dispositivo_
                                 1.c"
  2926                           	line	87
  2927                           	global	__size_of_end_cycle
  2928  0009                     	__size_of_end_cycle	equ	__end_of_end_cycle-_end_cycle
  2929                           	
  2930  060A                     _end_cycle:	
  2931 ;; hardware stack exceeded
  2932                           	opt	stack 0
  2933                           ; Regs used in _end_cycle: []
  2934                           	line	88
  2935                           	
  2936  060A                     l3672:	
  2937                           ;Dispositivo_1.c: 88: enviando=0;
  2938  060A  1683               	bsf	status, 5	;RP0=1, select bank1
  2939  060B  1303               	bcf	status, 6	;RP1=0, select bank1
  2940  060C  12A0               	bcf	(_enviando/8)^080h,(_enviando)&7
  2941                           	line	89
  2942                           ;Dispositivo_1.c: 89: bit_tx=0;
  2943  060D  1020               	bcf	(_bit_tx/8)^080h,(_bit_tx)&7
  2944                           	line	90
  2945                           ;Dispositivo_1.c: 90: dado_tx=0;
  2946  060E  1283               	bcf	status, 5	;RP0=0, select bank0
  2947  060F  1303               	bcf	status, 6	;RP1=0, select bank0
  2948  0610  01C1               	clrf	(_dado_tx)
  2949                           	line	91
  2950                           ;Dispositivo_1.c: 91: cycle=0;
  2951  0611  01BE               	clrf	(_cycle)
  2952                           	line	92
  2953                           	
  2954  0612                     l991:	
  2955  0612  0008               	return
  2956                           	opt stack 0
  2957                           GLOBAL	__end_of_end_cycle
  2958  0613                     	__end_of_end_cycle:
  2959 ;; =============== function _end_cycle ends ============
  2960                           
  2961                           	signat	_end_cycle,88
  2962                           	global	_acao_bt
  2963                           psect	text607,local,class=CODE,delta=2
  2964                           global __ptext607
  2965  05F5                     __ptext607:
  2966                           
  2967 ;; *************** function _acao_bt *****************
  2968 ;; Defined at:
  2969 ;;		line 38 in file "D:\Dropbox\TC - 2015\Pesquisas\PIC\5 - Protocolo completo (envio 2x)\Dispositivo_1.c"
  2970 ;; Parameters:    Size  Location     Type
  2971 ;;		None
  2972 ;; Auto vars:     Size  Location     Type
  2973 ;;		None
  2974 ;; Return value:  Size  Location     Type
  2975 ;;		None               void
  2976 ;; Registers used:
  2977 ;;		None
  2978 ;; Tracked objects:
  2979 ;;		On entry : 0/0
  2980 ;;		On exit  : 0/0
  2981 ;;		Unchanged: 0/0
  2982 ;; Data sizes:     COMMON   BANK0   BANK1   BANK2
  2983 ;;      Params:         0       0       0       0
  2984 ;;      Locals:         0       0       0       0
  2985 ;;      Temps:          0       0       0       0
  2986 ;;      Totals:         0       0       0       0
  2987 ;;Total ram usage:        0 bytes
  2988 ;; Hardware stack levels used:    1
  2989 ;; Hardware stack levels required when called:    7
  2990 ;; This function calls:
  2991 ;;		Nothing
  2992 ;; This function is called by:
  2993 ;;		_protocol_bt
  2994 ;; This function uses a non-reentrant model
  2995 ;;
  2996                           psect	text607
  2997                           	file	"D:\Dropbox\TC - 2015\Pesquisas\PIC\5 - Protocolo completo (envio 2x)\Dispositivo_
                                 1.c"
  2998                           	line	38
  2999                           	global	__size_of_acao_bt
  3000  000B                     	__size_of_acao_bt	equ	__end_of_acao_bt-_acao_bt
  3001                           	
  3002  05F5                     _acao_bt:	
  3003 ;; hardware stack exceeded
  3004                           	opt	stack 0
  3005                           ; Regs used in _acao_bt: []
  3006                           	line	39
  3007                           	
  3008  05F5                     l3664:	
  3009                           ;Dispositivo_1.c: 39: if((dado_rx0&0b00000001)==1){
  3010  05F5  1283               	bcf	status, 5	;RP0=0, select bank0
  3011  05F6  1303               	bcf	status, 6	;RP1=0, select bank0
  3012  05F7  1C40               	btfss	(_dado_rx0),(0)&7
  3013  05F8  2DFA               	goto	u2791
  3014  05F9  2DFB               	goto	u2790
  3015  05FA                     u2791:
  3016  05FA  2DFD               	goto	l966
  3017  05FB                     u2790:
  3018                           	line	40
  3019                           	
  3020  05FB                     l3666:	
  3021                           ;Dispositivo_1.c: 40: RA4=1;
  3022  05FB  1605               	bsf	(44/8),(44)&7
  3023                           	line	41
  3024                           ;Dispositivo_1.c: 41: }
  3025  05FC  2DFF               	goto	l968
  3026                           	line	42
  3027                           	
  3028  05FD                     l966:	
  3029                           	line	43
  3030                           ;Dispositivo_1.c: 42: else{
  3031                           ;Dispositivo_1.c: 43: RA4=0;
  3032  05FD  1205               	bcf	(44/8),(44)&7
  3033  05FE  2DFF               	goto	l968
  3034                           	line	44
  3035                           	
  3036  05FF                     l967:	
  3037                           	line	45
  3038                           	
  3039  05FF                     l968:	
  3040  05FF  0008               	return
  3041                           	opt stack 0
  3042                           GLOBAL	__end_of_acao_bt
  3043  0600                     	__end_of_acao_bt:
  3044 ;; =============== function _acao_bt ends ============
  3045                           
  3046                           	signat	_acao_bt,88
  3047                           	global	_interrupts
  3048                           psect	text608,local,class=CODE,delta=2
  3049                           global __ptext608
  3050  03F5                     __ptext608:
  3051                           
  3052 ;; *************** function _interrupts *****************
  3053 ;; Defined at:
  3054 ;;		line 128 in file "D:\Dropbox\TC - 2015\Pesquisas\PIC\5 - Protocolo completo (envio 2x)\Dispositivo_1.c"
  3055 ;; Parameters:    Size  Location     Type
  3056 ;;		None
  3057 ;; Auto vars:     Size  Location     Type
  3058 ;;		None
  3059 ;; Return value:  Size  Location     Type
  3060 ;;		None               void
  3061 ;; Registers used:
  3062 ;;		wreg, fsr0l, fsr0h, fsr1l, fsr1h, status,2, status,0, btemp+1, pclath, cstack
  3063 ;; Tracked objects:
  3064 ;;		On entry : 0/0
  3065 ;;		On exit  : 0/0
  3066 ;;		Unchanged: 0/0
  3067 ;; Data sizes:     COMMON   BANK0   BANK1   BANK2
  3068 ;;      Params:         0       0       0       0
  3069 ;;      Locals:         0       0       0       0
  3070 ;;      Temps:          0       6       0       0
  3071 ;;      Totals:         0       6       0       0
  3072 ;;Total ram usage:        6 bytes
  3073 ;; Hardware stack levels used:    1
  3074 ;; Hardware stack levels required when called:    6
  3075 ;; This function calls:
  3076 ;;		_printf
  3077 ;; This function is called by:
  3078 ;;		Interrupt level 1
  3079 ;; This function uses a non-reentrant model
  3080 ;;
  3081                           psect	text608
  3082                           	file	"D:\Dropbox\TC - 2015\Pesquisas\PIC\5 - Protocolo completo (envio 2x)\Dispositivo_
                                 1.c"
  3083                           	line	128
  3084                           	global	__size_of_interrupts
  3085  004C                     	__size_of_interrupts	equ	__end_of_interrupts-_interrupts
  3086                           	
  3087  03F5                     _interrupts:	
  3088 ;; hardware stack exceeded
  3089                           	opt	stack 0
  3090                           ; Regs used in _interrupts: [allreg]
  3091                           psect	intentry,class=CODE,delta=2
  3092                           global __pintentry
  3093  0004                     __pintentry:
  3094                           global interrupt_function
  3095  0004                     interrupt_function:
  3096                           	global saved_w
  3097  007E                     	saved_w	set	btemp+0
  3098  0004  00FE               	movwf	saved_w
  3099  0005  0E03               	swapf	status,w
  3100  0006  1283               	bcf	status, 5	;RP0=0, select bank0
  3101  0007  1303               	bcf	status, 6	;RP1=0, select bank0
  3102  0008  00B0               	movwf	(??_interrupts+2)
  3103  0009  0804               	movf	fsr0,w
  3104  000A  00B1               	movwf	(??_interrupts+3)
  3105  000B  080A               	movf	pclath,w
  3106  000C  00B2               	movwf	(??_interrupts+4)
  3107  000D  087F               	movf	btemp+1,w
  3108  000E  00B3               	movwf	(??_interrupts+5)
  3109  000F  118A  2BF5         	ljmp	_interrupts
  3110                           psect	text608
  3111                           	line	129
  3112                           	
  3113  03F5                     i1l3674:	
  3114                           ;Dispositivo_1.c: 129: if(INTF){
  3115  03F5  1C8B               	btfss	(89/8),(89)&7
  3116  03F6  2BF8               	goto	u280_21
  3117  03F7  2BF9               	goto	u280_20
  3118  03F8                     u280_21:
  3119  03F8  2C01               	goto	i1l1027
  3120  03F9                     u280_20:
  3121                           	line	130
  3122                           	
  3123  03F9                     i1l3676:	
  3124                           ;Dispositivo_1.c: 130: if(dado_tx){
  3125  03F9  0841               	movf	(_dado_tx),w
  3126  03FA  1D03               	skipz
  3127  03FB  2BFD               	goto	u281_20
  3128  03FC  2C00               	goto	i1l1028
  3129  03FD                     u281_20:
  3130                           	line	131
  3131                           	
  3132  03FD                     i1l3678:	
  3133                           ;Dispositivo_1.c: 131: enviar=1;
  3134  03FD  1683               	bsf	status, 5	;RP0=1, select bank1
  3135  03FE  1303               	bcf	status, 6	;RP1=0, select bank1
  3136  03FF  1720               	bsf	(_enviar/8)^080h,(_enviar)&7
  3137                           	line	132
  3138                           	
  3139  0400                     i1l1028:	
  3140                           	line	133
  3141                           ;Dispositivo_1.c: 132: }
  3142                           ;Dispositivo_1.c: 133: INTF=0;
  3143  0400  108B               	bcf	(89/8),(89)&7
  3144                           	line	134
  3145                           	
  3146  0401                     i1l1027:	
  3147                           	line	135
  3148                           ;Dispositivo_1.c: 134: }
  3149                           ;Dispositivo_1.c: 135: if(RCIF==1 && RCIE==1){
  3150  0401  1283               	bcf	status, 5	;RP0=0, select bank0
  3151  0402  1E8C               	btfss	(101/8),(101)&7
  3152  0403  2C05               	goto	u282_21
  3153  0404  2C06               	goto	u282_20
  3154  0405                     u282_21:
  3155  0405  2C35               	goto	i1l1034
  3156  0406                     u282_20:
  3157                           	
  3158  0406                     i1l3680:	
  3159  0406  1683               	bsf	status, 5	;RP0=1, select bank1
  3160  0407  1303               	bcf	status, 6	;RP1=0, select bank1
  3161  0408  1E8C               	btfss	(1125/8)^080h,(1125)&7
  3162  0409  2C0B               	goto	u283_21
  3163  040A  2C0C               	goto	u283_20
  3164  040B                     u283_21:
  3165  040B  2C35               	goto	i1l1034
  3166  040C                     u283_20:
  3167                           	line	136
  3168                           	
  3169  040C                     i1l3682:	
  3170                           ;Dispositivo_1.c: 136: if(FERR==1){
  3171  040C  1283               	bcf	status, 5	;RP0=0, select bank0
  3172  040D  1303               	bcf	status, 6	;RP1=0, select bank0
  3173  040E  1D18               	btfss	(194/8),(194)&7
  3174  040F  2C11               	goto	u284_21
  3175  0410  2C12               	goto	u284_20
  3176  0411                     u284_21:
  3177  0411  2C17               	goto	i1l1030
  3178  0412                     u284_20:
  3179                           	line	137
  3180                           	
  3181  0412                     i1l3684:	
  3182                           ;Dispositivo_1.c: 137: lixo=RCREG;
  3183  0412  081A               	movf	(26),w	;volatile
  3184  0413  00AE               	movwf	(??_interrupts+0)+0
  3185  0414  082E               	movf	(??_interrupts+0)+0,w
  3186  0415  00C3               	movwf	(_lixo)
  3187                           	line	138
  3188                           ;Dispositivo_1.c: 138: }
  3189  0416  2C32               	goto	i1l3694
  3190                           	line	139
  3191                           	
  3192  0417                     i1l1030:	
  3193                           ;Dispositivo_1.c: 139: else if(OERR==1){
  3194  0417  1C98               	btfss	(193/8),(193)&7
  3195  0418  2C1A               	goto	u285_21
  3196  0419  2C1B               	goto	u285_20
  3197  041A                     u285_21:
  3198  041A  2C1E               	goto	i1l3688
  3199  041B                     u285_20:
  3200                           	line	140
  3201                           	
  3202  041B                     i1l3686:	
  3203                           ;Dispositivo_1.c: 140: CREN=0;
  3204  041B  1218               	bcf	(196/8),(196)&7
  3205                           	line	141
  3206                           ;Dispositivo_1.c: 141: CREN=1;
  3207  041C  1618               	bsf	(196/8),(196)&7
  3208                           	line	142
  3209                           ;Dispositivo_1.c: 142: }
  3210  041D  2C32               	goto	i1l3694
  3211                           	line	143
  3212                           	
  3213  041E                     i1l1032:	
  3214                           	line	144
  3215                           	
  3216  041E                     i1l3688:	
  3217                           ;Dispositivo_1.c: 143: else{
  3218                           ;Dispositivo_1.c: 144: dado_rx0=RCREG;
  3219  041E  081A               	movf	(26),w	;volatile
  3220  041F  00AE               	movwf	(??_interrupts+0)+0
  3221  0420  082E               	movf	(??_interrupts+0)+0,w
  3222  0421  00C0               	movwf	(_dado_rx0)
  3223                           	line	145
  3224                           	
  3225  0422                     i1l3690:	
  3226                           ;Dispositivo_1.c: 145: printf("\f%d",dado_rx0);
  3227  0422  0840               	movf	(_dado_rx0),w
  3228  0423  00AE               	movwf	(??_interrupts+0)+0
  3229  0424  01AF               	clrf	(??_interrupts+0)+0+1
  3230  0425  082E               	movf	0+(??_interrupts+0)+0,w
  3231  0426  00A0               	movwf	(?_printf)
  3232  0427  082F               	movf	1+(??_interrupts+0)+0,w
  3233  0428  00A1               	movwf	(?_printf+1)
  3234  0429  300B               	movlw	((STR_1-__stringbase))&0ffh
  3235  042A  118A  21CC  118A   	fcall	_printf
  3236                           	line	146
  3237                           	
  3238  042D                     i1l3692:	
  3239                           ;Dispositivo_1.c: 146: bt_use=1;
  3240  042D  1683               	bsf	status, 5	;RP0=1, select bank1
  3241  042E  1303               	bcf	status, 6	;RP1=0, select bank1
  3242  042F  14A0               	bsf	(_bt_use/8)^080h,(_bt_use)&7
  3243  0430  2C32               	goto	i1l3694
  3244                           	line	147
  3245                           	
  3246  0431                     i1l1033:	
  3247  0431  2C32               	goto	i1l3694
  3248                           	
  3249  0432                     i1l1031:	
  3250                           	line	148
  3251                           	
  3252  0432                     i1l3694:	
  3253                           ;Dispositivo_1.c: 147: }
  3254                           ;Dispositivo_1.c: 148: RCIF=0;
  3255  0432  1283               	bcf	status, 5	;RP0=0, select bank0
  3256  0433  128C               	bcf	(101/8),(101)&7
  3257  0434  2C35               	goto	i1l1034
  3258                           	line	149
  3259                           	
  3260  0435                     i1l1029:	
  3261                           	line	150
  3262                           	
  3263  0435                     i1l1034:	
  3264  0435  1283               	bcf	status, 5	;RP0=0, select bank0
  3265  0436  0833               	movf	(??_interrupts+5),w
  3266  0437  00FF               	movwf	btemp+1
  3267  0438  0832               	movf	(??_interrupts+4),w
  3268  0439  008A               	movwf	pclath
  3269  043A  0831               	movf	(??_interrupts+3),w
  3270  043B  0084               	movwf	fsr0
  3271  043C  0E30               	swapf	(??_interrupts+2)^00h,w
  3272  043D  0083               	movwf	status
  3273  043E  0EFE               	swapf	saved_w,f
  3274  043F  0E7E               	swapf	saved_w,w
  3275  0440  0009               	retfie
  3276                           	opt stack 0
  3277                           GLOBAL	__end_of_interrupts
  3278  0441                     	__end_of_interrupts:
  3279 ;; =============== function _interrupts ends ============
  3280                           
  3281                           	signat	_interrupts,88
  3282                           	global	_printf
  3283                           psect	text609,local,class=CODE,delta=2
  3284                           global __ptext609
  3285  01CC                     __ptext609:
  3286                           
  3287 ;; *************** function _printf *****************
  3288 ;; Defined at:
  3289 ;;		line 461 in file "C:\Program Files (x86)\HI-TECH Software\PICC\9.83\lib\doprnt.c"
  3290 ;; Parameters:    Size  Location     Type
  3291 ;;  f               1    wreg     PTR const unsigned char 
  3292 ;;		 -> STR_1(4), 
  3293 ;; Auto vars:     Size  Location     Type
  3294 ;;  f               1    7[BANK0 ] PTR const unsigned char 
  3295 ;;		 -> STR_1(4), 
  3296 ;;  _val            4    9[BANK0 ] struct .
  3297 ;;  c               1   13[BANK0 ] char 
  3298 ;;  prec            1    8[BANK0 ] char 
  3299 ;;  flag            1    6[BANK0 ] unsigned char 
  3300 ;;  ap              1    5[BANK0 ] PTR void [1]
  3301 ;;		 -> ?_printf(2), 
  3302 ;; Return value:  Size  Location     Type
  3303 ;;                  2    0[BANK0 ] int 
  3304 ;; Registers used:
  3305 ;;		wreg, fsr0l, fsr0h, status,2, status,0, btemp+1, pclath, cstack
  3306 ;; Tracked objects:
  3307 ;;		On entry : 0/0
  3308 ;;		On exit  : 0/0
  3309 ;;		Unchanged: 0/0
  3310 ;; Data sizes:     COMMON   BANK0   BANK1   BANK2
  3311 ;;      Params:         0       2       0       0
  3312 ;;      Locals:         0       9       0       0
  3313 ;;      Temps:          0       3       0       0
  3314 ;;      Totals:         0      14       0       0
  3315 ;;Total ram usage:       14 bytes
  3316 ;; Hardware stack levels used:    1
  3317 ;; Hardware stack levels required when called:    5
  3318 ;; This function calls:
  3319 ;;		_putch
  3320 ;;		___lwdiv
  3321 ;;		___lwmod
  3322 ;; This function is called by:
  3323 ;;		_interrupts
  3324 ;; This function uses a non-reentrant model
  3325 ;;
  3326                           psect	text609
  3327                           	file	"C:\Program Files (x86)\HI-TECH Software\PICC\9.83\sources\doprnt.c"
  3328                           	line	461
  3329                           	global	__size_of_printf
  3330  00DA                     	__size_of_printf	equ	__end_of_printf-_printf
  3331                           	
  3332  01CC                     _printf:	
  3333 ;; hardware stack exceeded
  3334                           	opt	stack 0
  3335                           ; Regs used in _printf: [wreg-fsr0h+status,2+status,0+btemp+1+pclath+cstack]
  3336                           ;printf@f stored from wreg
  3337                           	line	537
  3338  01CC  1283               	bcf	status, 5	;RP0=0, select bank0
  3339  01CD  1303               	bcf	status, 6	;RP1=0, select bank0
  3340  01CE  00A7               	movwf	(printf@f)
  3341                           	
  3342  01CF                     i1l3696:	
  3343  01CF  3020               	movlw	(?_printf)&0ffh
  3344  01D0  00A2               	movwf	(??_printf+0)+0
  3345  01D1  0822               	movf	(??_printf+0)+0,w
  3346  01D2  00A5               	movwf	(printf@ap)
  3347                           	line	540
  3348  01D3  2A91               	goto	i1l3740
  3349                           	
  3350  01D4                     i1l1065:	
  3351                           	line	542
  3352                           	
  3353  01D4                     i1l3698:	
  3354  01D4  082D               	movf	(printf@c),w
  3355  01D5  3A25               	xorlw	025h
  3356  01D6  1903               	skipnz
  3357  01D7  29D9               	goto	u286_21
  3358  01D8  29DA               	goto	u286_20
  3359  01D9                     u286_21:
  3360  01D9  29DF               	goto	i1l1066
  3361  01DA                     u286_20:
  3362                           	line	545
  3363                           	
  3364  01DA                     i1l3700:	
  3365  01DA  082D               	movf	(printf@c),w
  3366  01DB  118A  2623  118A   	fcall	_putch
  3367                           	line	546
  3368  01DE  2A91               	goto	i1l3740
  3369                           	line	547
  3370                           	
  3371  01DF                     i1l1066:	
  3372                           	line	552
  3373  01DF  01A6               	clrf	(printf@flag)
  3374                           	line	638
  3375  01E0  29E6               	goto	i1l3704
  3376                           	line	640
  3377                           	
  3378  01E1                     i1l1068:	
  3379                           	line	641
  3380  01E1  2AA5               	goto	i1l1083
  3381                           	line	700
  3382                           	
  3383  01E2                     i1l1070:	
  3384  01E2  29F9               	goto	i1l3706
  3385                           	line	701
  3386                           	
  3387  01E3                     i1l1071:	
  3388                           	line	702
  3389  01E3  29F9               	goto	i1l3706
  3390                           	line	805
  3391                           	
  3392  01E4                     i1l1073:	
  3393                           	line	816
  3394  01E4  2A91               	goto	i1l3740
  3395                           	line	825
  3396                           	
  3397  01E5                     i1l3702:	
  3398  01E5  29F9               	goto	i1l3706
  3399                           	line	638
  3400                           	
  3401  01E6                     i1l1067:	
  3402                           	
  3403  01E6                     i1l3704:	
  3404  01E6  3001               	movlw	01h
  3405  01E7  07A7               	addwf	(printf@f),f
  3406  01E8  30FF               	movlw	-01h
  3407  01E9  0727               	addwf	(printf@f),w
  3408  01EA  0084               	movwf	fsr0
  3409  01EB  118A  2592  118A   	fcall	stringdir
  3410  01EE  00AD               	movwf	(printf@c)
  3411                           	; Switch size 1, requested type "space"
  3412                           ; Number of cases is 3, Range of values is 0 to 105
  3413                           ; switch strategies available:
  3414                           ; Name         Instructions Cycles
  3415                           ; simple_byte           10     6 (average)
  3416                           ; direct_byte          219     7 (fixed)
  3417                           ; jumptable            260     6 (fixed)
  3418                           ; rangetable           110     6 (fixed)
  3419                           ; spacedrange          218     9 (fixed)
  3420                           ; locatedrange         106     3 (fixed)
  3421                           ;	Chosen strategy is simple_byte
  3422                           
  3423                           	opt asmopt_off
  3424  01EF  3A00               	xorlw	0^0	; case 0
  3425  01F0  1903               	skipnz
  3426  01F1  2AA5               	goto	i1l1083
  3427  01F2  3A64               	xorlw	100^0	; case 100
  3428  01F3  1903               	skipnz
  3429  01F4  29F9               	goto	i1l3706
  3430  01F5  3A0D               	xorlw	105^100	; case 105
  3431  01F6  1903               	skipnz
  3432  01F7  29F9               	goto	i1l3706
  3433  01F8  2A91               	goto	i1l3740
  3434                           	opt asmopt_on
  3435                           
  3436                           	line	825
  3437                           	
  3438  01F9                     i1l1072:	
  3439                           	line	1254
  3440                           	
  3441  01F9                     i1l3706:	
  3442  01F9  0825               	movf	(printf@ap),w
  3443  01FA  0084               	movwf	fsr0
  3444  01FB  1383               	bcf	status, 7	;select IRP bank0
  3445  01FC  0800               	movf	indf,w
  3446  01FD  00A9               	movwf	(printf@_val)
  3447  01FE  0A84               	incf	fsr0,f
  3448  01FF  0800               	movf	indf,w
  3449  0200  00AA               	movwf	(printf@_val+1)
  3450                           	
  3451  0201                     i1l3708:	
  3452  0201  3002               	movlw	(02h)
  3453  0202  00A2               	movwf	(??_printf+0)+0
  3454  0203  0822               	movf	(??_printf+0)+0,w
  3455  0204  07A5               	addwf	(printf@ap),f
  3456                           	line	1256
  3457                           	
  3458  0205                     i1l3710:	
  3459  0205  1FAA               	btfss	(printf@_val+1),7
  3460  0206  2A08               	goto	u287_21
  3461  0207  2A09               	goto	u287_20
  3462  0208                     u287_21:
  3463  0208  2A13               	goto	i1l3716
  3464  0209                     u287_20:
  3465                           	line	1257
  3466                           	
  3467  0209                     i1l3712:	
  3468  0209  3003               	movlw	(03h)
  3469  020A  00A2               	movwf	(??_printf+0)+0
  3470  020B  0822               	movf	(??_printf+0)+0,w
  3471  020C  04A6               	iorwf	(printf@flag),f
  3472                           	line	1258
  3473                           	
  3474  020D                     i1l3714:	
  3475  020D  09A9               	comf	(printf@_val),f
  3476  020E  09AA               	comf	(printf@_val+1),f
  3477  020F  0AA9               	incf	(printf@_val),f
  3478  0210  1903               	skipnz
  3479  0211  0AAA               	incf	(printf@_val+1),f
  3480  0212  2A13               	goto	i1l3716
  3481                           	line	1259
  3482                           	
  3483  0213                     i1l1074:	
  3484                           	line	1300
  3485                           	
  3486  0213                     i1l3716:	
  3487  0213  01AD               	clrf	(printf@c)
  3488  0214  1403               	bsf	status,0
  3489  0215  0DAD               	rlf	(printf@c),f
  3490                           	
  3491  0216                     i1l3718:	
  3492  0216  082D               	movf	(printf@c),w
  3493  0217  3A05               	xorlw	05h
  3494  0218  1D03               	skipz
  3495  0219  2A1B               	goto	u288_21
  3496  021A  2A1C               	goto	u288_20
  3497  021B                     u288_21:
  3498  021B  2A1E               	goto	i1l3722
  3499  021C                     u288_20:
  3500  021C  2A42               	goto	i1l3730
  3501                           	
  3502  021D                     i1l3720:	
  3503  021D  2A42               	goto	i1l3730
  3504                           	line	1301
  3505                           	
  3506  021E                     i1l1075:	
  3507                           	
  3508  021E                     i1l3722:	
  3509  021E  082D               	movf	(printf@c),w
  3510  021F  00A2               	movwf	(??_printf+0)+0
  3511  0220  0722               	addwf	(??_printf+0)+0,w
  3512  0221  3E01               	addlw	low((_dpowers-__stringbase))
  3513  0222  0084               	movwf	fsr0
  3514  0223  118A  2592  118A   	fcall	stringdir
  3515  0226  00A3               	movwf	(??_printf+1)+0
  3516  0227  118A  2592  118A   	fcall	stringdir
  3517  022A  00A4               	movwf	(??_printf+1)+0+1
  3518  022B  0824               	movf	1+(??_printf+1)+0,w
  3519  022C  022A               	subwf	(printf@_val+1),w
  3520  022D  1D03               	skipz
  3521  022E  2A31               	goto	u289_25
  3522  022F  0823               	movf	0+(??_printf+1)+0,w
  3523  0230  0229               	subwf	(printf@_val),w
  3524  0231                     u289_25:
  3525  0231  1803               	skipnc
  3526  0232  2A34               	goto	u289_21
  3527  0233  2A35               	goto	u289_20
  3528  0234                     u289_21:
  3529  0234  2A37               	goto	i1l3726
  3530  0235                     u289_20:
  3531  0235  2A42               	goto	i1l3730
  3532                           	line	1302
  3533                           	
  3534  0236                     i1l3724:	
  3535  0236  2A42               	goto	i1l3730
  3536                           	
  3537  0237                     i1l1077:	
  3538                           	line	1300
  3539                           	
  3540  0237                     i1l3726:	
  3541  0237  3001               	movlw	(01h)
  3542  0238  00A2               	movwf	(??_printf+0)+0
  3543  0239  0822               	movf	(??_printf+0)+0,w
  3544  023A  07AD               	addwf	(printf@c),f
  3545                           	
  3546  023B                     i1l3728:	
  3547  023B  082D               	movf	(printf@c),w
  3548  023C  3A05               	xorlw	05h
  3549  023D  1D03               	skipz
  3550  023E  2A40               	goto	u290_21
  3551  023F  2A41               	goto	u290_20
  3552  0240                     u290_21:
  3553  0240  2A1E               	goto	i1l3722
  3554  0241                     u290_20:
  3555  0241  2A42               	goto	i1l3730
  3556                           	
  3557  0242                     i1l1076:	
  3558                           	line	1433
  3559                           	
  3560  0242                     i1l3730:	
  3561  0242  0826               	movf	(printf@flag),w
  3562  0243  3903               	andlw	03h
  3563  0244  1903               	btfsc	status,2
  3564  0245  2A47               	goto	u291_21
  3565  0246  2A48               	goto	u291_20
  3566  0247                     u291_21:
  3567  0247  2A4D               	goto	i1l3734
  3568  0248                     u291_20:
  3569                           	line	1434
  3570                           	
  3571  0248                     i1l3732:	
  3572  0248  302D               	movlw	(02Dh)
  3573  0249  118A  2623  118A   	fcall	_putch
  3574  024C  2A4D               	goto	i1l3734
  3575                           	
  3576  024D                     i1l1078:	
  3577                           	line	1467
  3578                           	
  3579  024D                     i1l3734:	
  3580  024D  1283               	bcf	status, 5	;RP0=0, select bank0
  3581  024E  1303               	bcf	status, 6	;RP1=0, select bank0
  3582  024F  082D               	movf	(printf@c),w
  3583  0250  00A2               	movwf	(??_printf+0)+0
  3584  0251  0822               	movf	(??_printf+0)+0,w
  3585  0252  00A8               	movwf	(printf@prec)
  3586                           	line	1469
  3587  0253  2A83               	goto	i1l3738
  3588                           	
  3589  0254                     i1l1080:	
  3590                           	line	1484
  3591                           	
  3592  0254                     i1l3736:	
  3593  0254  300A               	movlw	low(0Ah)
  3594  0255  00F8               	movwf	(?___lwmod)
  3595  0256  3000               	movlw	high(0Ah)
  3596  0257  00F9               	movwf	((?___lwmod))+1
  3597  0258  0828               	movf	(printf@prec),w
  3598  0259  00A2               	movwf	(??_printf+0)+0
  3599  025A  0722               	addwf	(??_printf+0)+0,w
  3600  025B  3E01               	addlw	low((_dpowers-__stringbase))
  3601  025C  0084               	movwf	fsr0
  3602  025D  118A  2592  118A   	fcall	stringdir
  3603  0260  00F0               	movwf	(?___lwdiv)
  3604  0261  118A  2592  118A   	fcall	stringdir
  3605  0264  00F1               	movwf	(?___lwdiv+1)
  3606  0265  082A               	movf	(printf@_val+1),w
  3607  0266  01F3               	clrf	1+(?___lwdiv)+02h
  3608  0267  07F3               	addwf	1+(?___lwdiv)+02h
  3609  0268  0829               	movf	(printf@_val),w
  3610  0269  01F2               	clrf	0+(?___lwdiv)+02h
  3611  026A  07F2               	addwf	0+(?___lwdiv)+02h
  3612                           
  3613  026B  118A  23A7  118A   	fcall	___lwdiv
  3614  026E  0871               	movf	(1+(?___lwdiv)),w
  3615  026F  01FB               	clrf	1+(?___lwmod)+02h
  3616  0270  07FB               	addwf	1+(?___lwmod)+02h
  3617  0271  0870               	movf	(0+(?___lwdiv)),w
  3618  0272  01FA               	clrf	0+(?___lwmod)+02h
  3619  0273  07FA               	addwf	0+(?___lwmod)+02h
  3620                           
  3621  0274  118A  2441  118A   	fcall	___lwmod
  3622  0277  0878               	movf	(0+(?___lwmod)),w
  3623  0278  3E30               	addlw	030h
  3624  0279  1283               	bcf	status, 5	;RP0=0, select bank0
  3625  027A  1303               	bcf	status, 6	;RP1=0, select bank0
  3626  027B  00A3               	movwf	(??_printf+1)+0
  3627  027C  0823               	movf	(??_printf+1)+0,w
  3628  027D  00AD               	movwf	(printf@c)
  3629                           	line	1516
  3630  027E  082D               	movf	(printf@c),w
  3631  027F  118A  2623  118A   	fcall	_putch
  3632  0282  2A83               	goto	i1l3738
  3633                           	line	1517
  3634                           	
  3635  0283                     i1l1079:	
  3636                           	line	1469
  3637                           	
  3638  0283                     i1l3738:	
  3639  0283  30FF               	movlw	(-1)
  3640  0284  1283               	bcf	status, 5	;RP0=0, select bank0
  3641  0285  1303               	bcf	status, 6	;RP1=0, select bank0
  3642  0286  00A2               	movwf	(??_printf+0)+0
  3643  0287  0822               	movf	(??_printf+0)+0,w
  3644  0288  07A8               	addwf	(printf@prec),f
  3645  0289  0828               	movf	((printf@prec)),w
  3646  028A  3AFF               	xorlw	-1
  3647  028B  1D03               	skipz
  3648  028C  2A8E               	goto	u292_21
  3649  028D  2A8F               	goto	u292_20
  3650  028E                     u292_21:
  3651  028E  2A54               	goto	i1l3736
  3652  028F                     u292_20:
  3653  028F  2A91               	goto	i1l3740
  3654                           	
  3655  0290                     i1l1081:	
  3656  0290  2A91               	goto	i1l3740
  3657                           	line	1525
  3658                           	
  3659  0291                     i1l1064:	
  3660                           	line	540
  3661                           	
  3662  0291                     i1l3740:	
  3663  0291  3001               	movlw	01h
  3664  0292  1283               	bcf	status, 5	;RP0=0, select bank0
  3665  0293  1303               	bcf	status, 6	;RP1=0, select bank0
  3666  0294  07A7               	addwf	(printf@f),f
  3667  0295  30FF               	movlw	-01h
  3668  0296  0727               	addwf	(printf@f),w
  3669  0297  0084               	movwf	fsr0
  3670  0298  118A  2592  118A   	fcall	stringdir
  3671  029B  00A2               	movwf	(??_printf+0)+0
  3672  029C  0822               	movf	(??_printf+0)+0,w
  3673  029D  00AD               	movwf	(printf@c)
  3674  029E  08AD               	movf	((printf@c)),f
  3675  029F  1D03               	skipz
  3676  02A0  2AA2               	goto	u293_21
  3677  02A1  2AA3               	goto	u293_20
  3678  02A2                     u293_21:
  3679  02A2  29D4               	goto	i1l3698
  3680  02A3                     u293_20:
  3681  02A3  2AA5               	goto	i1l1083
  3682                           	
  3683  02A4                     i1l1082:	
  3684  02A4  2AA5               	goto	i1l1083
  3685                           	line	1527
  3686                           	
  3687  02A5                     i1l1069:	
  3688                           	line	1533
  3689                           ;	Return value of _printf is never used
  3690                           	
  3691  02A5                     i1l1083:	
  3692  02A5  0008               	return
  3693                           	opt stack 0
  3694                           GLOBAL	__end_of_printf
  3695  02A6                     	__end_of_printf:
  3696 ;; =============== function _printf ends ============
  3697                           
  3698                           	signat	_printf,602
  3699                           	global	_putch
  3700                           psect	text610,local,class=CODE,delta=2
  3701                           global __ptext610
  3702  0623                     __ptext610:
  3703                           
  3704 ;; *************** function _putch *****************
  3705 ;; Defined at:
  3706 ;;		line 107 in file "D:\Dropbox\TC - 2015\Pesquisas\PIC\5 - Protocolo completo (envio 2x)\LCD_Claudio.c"
  3707 ;; Parameters:    Size  Location     Type
  3708 ;;  c               1    wreg     unsigned char 
  3709 ;; Auto vars:     Size  Location     Type
  3710 ;;  c               1    6[COMMON] unsigned char 
  3711 ;; Return value:  Size  Location     Type
  3712 ;;		None               void
  3713 ;; Registers used:
  3714 ;;		wreg, fsr0l, fsr0h, status,2, status,0, pclath, cstack
  3715 ;; Tracked objects:
  3716 ;;		On entry : 0/0
  3717 ;;		On exit  : 0/0
  3718 ;;		Unchanged: 0/0
  3719 ;; Data sizes:     COMMON   BANK0   BANK1   BANK2
  3720 ;;      Params:         0       0       0       0
  3721 ;;      Locals:         1       0       0       0
  3722 ;;      Temps:          0       0       0       0
  3723 ;;      Totals:         1       0       0       0
  3724 ;;Total ram usage:        1 bytes
  3725 ;; Hardware stack levels used:    1
  3726 ;; Hardware stack levels required when called:    4
  3727 ;; This function calls:
  3728 ;;		_lcd_putc
  3729 ;; This function is called by:
  3730 ;;		_printf
  3731 ;; This function uses a non-reentrant model
  3732 ;;
  3733                           psect	text610
  3734                           	file	"D:\Dropbox\TC - 2015\Pesquisas\PIC\5 - Protocolo completo (envio 2x)\LCD_Claudio.
                                 c"
  3735                           	line	107
  3736                           	global	__size_of_putch
  3737  0006                     	__size_of_putch	equ	__end_of_putch-_putch
  3738                           	
  3739  0623                     _putch:	
  3740 ;; hardware stack exceeded
  3741                           	opt	stack 0
  3742                           ; Regs used in _putch: [wreg-fsr0h+status,2+status,0+pclath+cstack]
  3743                           ;putch@c stored from wreg
  3744  0623  00F6               	movwf	(putch@c)
  3745                           	line	108
  3746                           	
  3747  0624                     i1l3662:	
  3748                           ;LCD_Claudio.c: 108: lcd_putc(c);
  3749  0624  0876               	movf	(putch@c),w
  3750  0625  118A  2357  118A   	fcall	_lcd_putc
  3751                           	line	109
  3752                           	
  3753  0628                     i1l963:	
  3754  0628  0008               	return
  3755                           	opt stack 0
  3756                           GLOBAL	__end_of_putch
  3757  0629                     	__end_of_putch:
  3758 ;; =============== function _putch ends ============
  3759                           
  3760                           	signat	_putch,4216
  3761                           	global	_lcd_putc
  3762                           psect	text611,local,class=CODE,delta=2
  3763                           global __ptext611
  3764  0357                     __ptext611:
  3765                           
  3766 ;; *************** function _lcd_putc *****************
  3767 ;; Defined at:
  3768 ;;		line 50 in file "D:\Dropbox\TC - 2015\Pesquisas\PIC\5 - Protocolo completo (envio 2x)\LCD_Claudio.c"
  3769 ;; Parameters:    Size  Location     Type
  3770 ;;  c               1    wreg     unsigned char 
  3771 ;; Auto vars:     Size  Location     Type
  3772 ;;  c               1    5[COMMON] unsigned char 
  3773 ;; Return value:  Size  Location     Type
  3774 ;;		None               void
  3775 ;; Registers used:
  3776 ;;		wreg, fsr0l, fsr0h, status,2, status,0, pclath, cstack
  3777 ;; Tracked objects:
  3778 ;;		On entry : 0/0
  3779 ;;		On exit  : 0/0
  3780 ;;		Unchanged: 0/0
  3781 ;; Data sizes:     COMMON   BANK0   BANK1   BANK2
  3782 ;;      Params:         0       0       0       0
  3783 ;;      Locals:         1       0       0       0
  3784 ;;      Temps:          0       0       0       0
  3785 ;;      Totals:         1       0       0       0
  3786 ;;Total ram usage:        1 bytes
  3787 ;; Hardware stack levels used:    1
  3788 ;; Hardware stack levels required when called:    3
  3789 ;; This function calls:
  3790 ;;		i1_Clear
  3791 ;;		_lcd_goto
  3792 ;;		i1_Write
  3793 ;;		_lcd_putc
  3794 ;; This function is called by:
  3795 ;;		_putch
  3796 ;; This function uses a non-reentrant model
  3797 ;;
  3798                           psect	text611
  3799                           	file	"D:\Dropbox\TC - 2015\Pesquisas\PIC\5 - Protocolo completo (envio 2x)\LCD_Claudio.
                                 c"
  3800                           	line	50
  3801                           	global	__size_of_lcd_putc
  3802  0050                     	__size_of_lcd_putc	equ	__end_of_lcd_putc-_lcd_putc
  3803                           	
  3804  0357                     _lcd_putc:	
  3805 ;; hardware stack exceeded
  3806                           	opt	stack 0
  3807                           ; Regs used in _lcd_putc: [wreg-fsr0h+status,2+status,0+pclath+cstack]
  3808                           ;lcd_putc@c stored from wreg
  3809  0357  00F5               	movwf	(lcd_putc@c)
  3810                           	line	51
  3811                           	
  3812  0358                     i1l3636:	
  3813                           ;LCD_Claudio.c: 51: switch (c){
  3814  0358  2B95               	goto	i1l3656
  3815                           	line	52
  3816                           ;LCD_Claudio.c: 52: case '\f':
  3817                           	
  3818  0359                     i1l947:	
  3819                           	line	53
  3820                           	
  3821  0359                     i1l3638:	
  3822                           ;LCD_Claudio.c: 53: Clear();
  3823  0359  118A  25B9  118A   	fcall	i1_Clear
  3824                           	line	54
  3825                           ;LCD_Claudio.c: 54: break;
  3826  035C  2BA6               	goto	i1l954
  3827                           	line	55
  3828                           ;LCD_Claudio.c: 55: case '\n':
  3829                           	
  3830  035D                     i1l949:	
  3831                           	line	56
  3832                           	
  3833  035D                     i1l3640:	
  3834                           ;LCD_Claudio.c: 56: lcd_goto(0x40);
  3835  035D  3040               	movlw	(040h)
  3836  035E  118A  2600  118A   	fcall	_lcd_goto
  3837                           	line	57
  3838                           ;LCD_Claudio.c: 57: break;
  3839  0361  2BA6               	goto	i1l954
  3840                           	line	58
  3841                           ;LCD_Claudio.c: 58: case '\r':
  3842                           	
  3843  0362                     i1l950:	
  3844                           	line	59
  3845                           ;LCD_Claudio.c: 59: RC6 = 0;
  3846  0362  1283               	bcf	status, 5	;RP0=0, select bank0
  3847  0363  1303               	bcf	status, 6	;RP1=0, select bank0
  3848  0364  1307               	bcf	(62/8),(62)&7
  3849                           	line	60
  3850                           	
  3851  0365                     i1l3642:	
  3852                           ;LCD_Claudio.c: 60: Write(0x80);
  3853  0365  3080               	movlw	(080h)
  3854  0366  118A  2513  118A   	fcall	i1_Write
  3855                           	line	61
  3856                           ;LCD_Claudio.c: 61: break;
  3857  0369  2BA6               	goto	i1l954
  3858                           	line	62
  3859                           ;LCD_Claudio.c: 62: case '\b':
  3860                           	
  3861  036A                     i1l951:	
  3862                           	line	63
  3863                           ;LCD_Claudio.c: 63: RC6=0;
  3864  036A  1283               	bcf	status, 5	;RP0=0, select bank0
  3865  036B  1303               	bcf	status, 6	;RP1=0, select bank0
  3866  036C  1307               	bcf	(62/8),(62)&7
  3867                           	line	64
  3868                           	
  3869  036D                     i1l3644:	
  3870                           ;LCD_Claudio.c: 64: Write(0b0000010000);
  3871  036D  3010               	movlw	(010h)
  3872  036E  118A  2513  118A   	fcall	i1_Write
  3873                           	line	65
  3874                           	
  3875  0371                     i1l3646:	
  3876                           ;LCD_Claudio.c: 65: RC6=1;
  3877  0371  1283               	bcf	status, 5	;RP0=0, select bank0
  3878  0372  1303               	bcf	status, 6	;RP1=0, select bank0
  3879  0373  1707               	bsf	(62/8),(62)&7
  3880                           	line	66
  3881                           ;LCD_Claudio.c: 66: lcd_putc(32);
  3882  0374  3020               	movlw	(020h)
  3883  0375  118A  2357  118A   	fcall	_lcd_putc
  3884                           	line	67
  3885                           	
  3886  0378                     i1l3648:	
  3887                           ;LCD_Claudio.c: 67: RC6=0;
  3888  0378  1283               	bcf	status, 5	;RP0=0, select bank0
  3889  0379  1303               	bcf	status, 6	;RP1=0, select bank0
  3890  037A  1307               	bcf	(62/8),(62)&7
  3891                           	line	68
  3892                           ;LCD_Claudio.c: 68: Write(0b0000010000);
  3893  037B  3010               	movlw	(010h)
  3894  037C  118A  2513  118A   	fcall	i1_Write
  3895                           	line	69
  3896                           ;LCD_Claudio.c: 69: break;
  3897  037F  2BA6               	goto	i1l954
  3898                           	line	70
  3899                           ;LCD_Claudio.c: 70: case '\t':
  3900                           	
  3901  0380                     i1l952:	
  3902                           	line	71
  3903                           ;LCD_Claudio.c: 71: RC6=0;
  3904  0380  1283               	bcf	status, 5	;RP0=0, select bank0
  3905  0381  1303               	bcf	status, 6	;RP1=0, select bank0
  3906  0382  1307               	bcf	(62/8),(62)&7
  3907                           	line	72
  3908                           	
  3909  0383                     i1l3650:	
  3910                           ;LCD_Claudio.c: 72: Write(0b0000010100);
  3911  0383  3014               	movlw	(014h)
  3912  0384  118A  2513  118A   	fcall	i1_Write
  3913                           	line	73
  3914                           ;LCD_Claudio.c: 73: Write(0b0000010100);
  3915  0387  3014               	movlw	(014h)
  3916  0388  118A  2513  118A   	fcall	i1_Write
  3917                           	line	74
  3918                           ;LCD_Claudio.c: 74: break;
  3919  038B  2BA6               	goto	i1l954
  3920                           	line	75
  3921                           ;LCD_Claudio.c: 75: default:
  3922                           	
  3923  038C                     i1l953:	
  3924                           	line	76
  3925                           ;LCD_Claudio.c: 76: RC6 = 1;
  3926  038C  1283               	bcf	status, 5	;RP0=0, select bank0
  3927  038D  1303               	bcf	status, 6	;RP1=0, select bank0
  3928  038E  1707               	bsf	(62/8),(62)&7
  3929                           	line	77
  3930                           	
  3931  038F                     i1l3652:	
  3932                           ;LCD_Claudio.c: 77: Write( c );
  3933  038F  0875               	movf	(lcd_putc@c),w
  3934  0390  118A  2513  118A   	fcall	i1_Write
  3935                           	line	78
  3936                           ;LCD_Claudio.c: 78: break;
  3937  0393  2BA6               	goto	i1l954
  3938                           	line	79
  3939                           	
  3940  0394                     i1l3654:	
  3941                           ;LCD_Claudio.c: 79: }
  3942  0394  2BA6               	goto	i1l954
  3943                           	line	51
  3944                           	
  3945  0395                     i1l946:	
  3946                           	
  3947  0395                     i1l3656:	
  3948  0395  0875               	movf	(lcd_putc@c),w
  3949                           	; Switch size 1, requested type "space"
  3950                           ; Number of cases is 5, Range of values is 8 to 13
  3951                           ; switch strategies available:
  3952                           ; Name         Instructions Cycles
  3953                           ; simple_byte           16     9 (average)
  3954                           ; direct_byte           22    10 (fixed)
  3955                           ; jumptable            263     9 (fixed)
  3956                           ;	Chosen strategy is simple_byte
  3957                           
  3958                           	opt asmopt_off
  3959  0396  3A08               	xorlw	8^0	; case 8
  3960  0397  1903               	skipnz
  3961  0398  2B6A               	goto	i1l951
  3962  0399  3A01               	xorlw	9^8	; case 9
  3963  039A  1903               	skipnz
  3964  039B  2B80               	goto	i1l952
  3965  039C  3A03               	xorlw	10^9	; case 10
  3966  039D  1903               	skipnz
  3967  039E  2B5D               	goto	i1l3640
  3968  039F  3A06               	xorlw	12^10	; case 12
  3969  03A0  1903               	skipnz
  3970  03A1  2B59               	goto	i1l3638
  3971  03A2  3A01               	xorlw	13^12	; case 13
  3972  03A3  1903               	skipnz
  3973  03A4  2B62               	goto	i1l950
  3974  03A5  2B8C               	goto	i1l953
  3975                           	opt asmopt_on
  3976                           
  3977                           	line	79
  3978                           	
  3979  03A6                     i1l948:	
  3980                           	line	80
  3981                           	
  3982  03A6                     i1l954:	
  3983  03A6  0008               	return
  3984                           	opt stack 0
  3985                           GLOBAL	__end_of_lcd_putc
  3986  03A7                     	__end_of_lcd_putc:
  3987 ;; =============== function _lcd_putc ends ============
  3988                           
  3989                           	signat	_lcd_putc,4216
  3990                           	global	i1_Clear
  3991                           psect	text612,local,class=CODE,delta=2
  3992                           global __ptext612
  3993  05B9                     __ptext612:
  3994                           
  3995 ;; *************** function i1_Clear *****************
  3996 ;; Defined at:
  3997 ;;		line 38 in file "D:\Dropbox\TC - 2015\Pesquisas\PIC\5 - Protocolo completo (envio 2x)\LCD_Claudio.c"
  3998 ;; Parameters:    Size  Location     Type
  3999 ;;		None
  4000 ;; Auto vars:     Size  Location     Type
  4001 ;;		None
  4002 ;; Return value:  Size  Location     Type
  4003 ;;		None               void
  4004 ;; Registers used:
  4005 ;;		wreg, status,2, status,0, pclath, cstack
  4006 ;; Tracked objects:
  4007 ;;		On entry : 0/0
  4008 ;;		On exit  : 0/0
  4009 ;;		Unchanged: 0/0
  4010 ;; Data sizes:     COMMON   BANK0   BANK1   BANK2
  4011 ;;      Params:         0       0       0       0
  4012 ;;      Locals:         0       0       0       0
  4013 ;;      Temps:          2       0       0       0
  4014 ;;      Totals:         2       0       0       0
  4015 ;;Total ram usage:        2 bytes
  4016 ;; Hardware stack levels used:    1
  4017 ;; Hardware stack levels required when called:    2
  4018 ;; This function calls:
  4019 ;;		i1_Write
  4020 ;; This function is called by:
  4021 ;;		_lcd_putc
  4022 ;; This function uses a non-reentrant model
  4023 ;;
  4024                           psect	text612
  4025                           	file	"D:\Dropbox\TC - 2015\Pesquisas\PIC\5 - Protocolo completo (envio 2x)\LCD_Claudio.
                                 c"
  4026                           	line	38
  4027                           	global	__size_ofi1_Clear
  4028  0011                     	__size_ofi1_Clear	equ	__end_ofi1_Clear-i1_Clear
  4029                           	
  4030  05B9                     i1_Clear:	
  4031 ;; hardware stack exceeded
  4032                           	opt	stack 0
  4033                           ; Regs used in i1_Clear: [wreg+status,2+status,0+pclath+cstack]
  4034                           	line	39
  4035                           	
  4036  05B9                     i1l3838:	
  4037                           ;LCD_Claudio.c: 39: RC6 = 0;
  4038  05B9  1283               	bcf	status, 5	;RP0=0, select bank0
  4039  05BA  1303               	bcf	status, 6	;RP1=0, select bank0
  4040  05BB  1307               	bcf	(62/8),(62)&7
  4041                           	line	40
  4042                           	
  4043  05BC                     i1l3840:	
  4044                           ;LCD_Claudio.c: 40: Write(0x01);
  4045  05BC  3001               	movlw	(01h)
  4046  05BD  118A  2513  118A   	fcall	i1_Write
  4047                           	line	41
  4048                           	
  4049  05C0                     i1l3842:	
  4050                           ;LCD_Claudio.c: 41: _delay((unsigned long)((2)*(4000000/4000.0)));
  4051                           	opt asmopt_off
  4052  05C0  3003               movlw	3
  4053  05C1  00F4               movwf	((??i1_Clear+0)+0+1),f
  4054  05C2  3097               	movlw	151
  4055  05C3  00F3               movwf	((??i1_Clear+0)+0),f
  4056  05C4                     u357_27:
  4057  05C4  0BF3               	decfsz	((??i1_Clear+0)+0),f
  4058  05C5  2DC4               	goto	u357_27
  4059  05C6  0BF4               	decfsz	((??i1_Clear+0)+0+1),f
  4060  05C7  2DC4               	goto	u357_27
  4061  05C8  2DC9               	nop2
  4062                           opt asmopt_on
  4063                           
  4064                           	line	42
  4065                           	
  4066  05C9                     i1l937:	
  4067  05C9  0008               	return
  4068                           	opt stack 0
  4069                           GLOBAL	__end_ofi1_Clear
  4070  05CA                     	__end_ofi1_Clear:
  4071 ;; =============== function i1_Clear ends ============
  4072                           
  4073                           	signat	i1_Clear,88
  4074                           	global	_lcd_goto
  4075                           psect	text613,local,class=CODE,delta=2
  4076                           global __ptext613
  4077  0600                     __ptext613:
  4078                           
  4079 ;; *************** function _lcd_goto *****************
  4080 ;; Defined at:
  4081 ;;		line 82 in file "D:\Dropbox\TC - 2015\Pesquisas\PIC\5 - Protocolo completo (envio 2x)\LCD_Claudio.c"
  4082 ;; Parameters:    Size  Location     Type
  4083 ;;  pos             1    wreg     unsigned char 
  4084 ;; Auto vars:     Size  Location     Type
  4085 ;;  pos             1    3[COMMON] unsigned char 
  4086 ;; Return value:  Size  Location     Type
  4087 ;;		None               void
  4088 ;; Registers used:
  4089 ;;		wreg, status,2, status,0, pclath, cstack
  4090 ;; Tracked objects:
  4091 ;;		On entry : 0/0
  4092 ;;		On exit  : 0/0
  4093 ;;		Unchanged: 0/0
  4094 ;; Data sizes:     COMMON   BANK0   BANK1   BANK2
  4095 ;;      Params:         0       0       0       0
  4096 ;;      Locals:         1       0       0       0
  4097 ;;      Temps:          0       0       0       0
  4098 ;;      Totals:         1       0       0       0
  4099 ;;Total ram usage:        1 bytes
  4100 ;; Hardware stack levels used:    1
  4101 ;; Hardware stack levels required when called:    2
  4102 ;; This function calls:
  4103 ;;		i1_Write
  4104 ;; This function is called by:
  4105 ;;		_lcd_putc
  4106 ;; This function uses a non-reentrant model
  4107 ;;
  4108                           psect	text613
  4109                           	file	"D:\Dropbox\TC - 2015\Pesquisas\PIC\5 - Protocolo completo (envio 2x)\LCD_Claudio.
                                 c"
  4110                           	line	82
  4111                           	global	__size_of_lcd_goto
  4112  000A                     	__size_of_lcd_goto	equ	__end_of_lcd_goto-_lcd_goto
  4113                           	
  4114  0600                     _lcd_goto:	
  4115 ;; hardware stack exceeded
  4116                           	opt	stack 0
  4117                           ; Regs used in _lcd_goto: [wreg+status,2+status,0+pclath+cstack]
  4118                           ;lcd_goto@pos stored from wreg
  4119  0600  00F3               	movwf	(lcd_goto@pos)
  4120                           	line	83
  4121                           	
  4122  0601                     i1l3658:	
  4123                           ;LCD_Claudio.c: 83: RC6 = 0;
  4124  0601  1283               	bcf	status, 5	;RP0=0, select bank0
  4125  0602  1303               	bcf	status, 6	;RP1=0, select bank0
  4126  0603  1307               	bcf	(62/8),(62)&7
  4127                           	line	84
  4128                           	
  4129  0604                     i1l3660:	
  4130                           ;LCD_Claudio.c: 84: Write(0x80+pos);
  4131  0604  0873               	movf	(lcd_goto@pos),w
  4132  0605  3E80               	addlw	080h
  4133  0606  118A  2513  118A   	fcall	i1_Write
  4134                           	line	85
  4135                           	
  4136  0609                     i1l957:	
  4137  0609  0008               	return
  4138                           	opt stack 0
  4139                           GLOBAL	__end_of_lcd_goto
  4140  060A                     	__end_of_lcd_goto:
  4141 ;; =============== function _lcd_goto ends ============
  4142                           
  4143                           	signat	_lcd_goto,4216
  4144                           	global	i1_Write
  4145                           psect	text614,local,class=CODE,delta=2
  4146                           global __ptext614
  4147  0513                     __ptext614:
  4148                           
  4149 ;; *************** function i1_Write *****************
  4150 ;; Defined at:
  4151 ;;		line 28 in file "D:\Dropbox\TC - 2015\Pesquisas\PIC\5 - Protocolo completo (envio 2x)\LCD_Claudio.c"
  4152 ;; Parameters:    Size  Location     Type
  4153 ;;  Write           1    wreg     unsigned char 
  4154 ;; Auto vars:     Size  Location     Type
  4155 ;;  Write           1    2[COMMON] unsigned char 
  4156 ;; Return value:  Size  Location     Type
  4157 ;;		None               void
  4158 ;; Registers used:
  4159 ;;		wreg, status,2, status,0, pclath, cstack
  4160 ;; Tracked objects:
  4161 ;;		On entry : 0/0
  4162 ;;		On exit  : 0/0
  4163 ;;		Unchanged: 0/0
  4164 ;; Data sizes:     COMMON   BANK0   BANK1   BANK2
  4165 ;;      Params:         0       0       0       0
  4166 ;;      Locals:         1       0       0       0
  4167 ;;      Temps:          2       0       0       0
  4168 ;;      Totals:         3       0       0       0
  4169 ;;Total ram usage:        3 bytes
  4170 ;; Hardware stack levels used:    1
  4171 ;; Hardware stack levels required when called:    1
  4172 ;; This function calls:
  4173 ;;		i1_Enable
  4174 ;; This function is called by:
  4175 ;;		_lcd_putc
  4176 ;;		_lcd_goto
  4177 ;;		i1_Clear
  4178 ;; This function uses a non-reentrant model
  4179 ;;
  4180                           psect	text614
  4181                           	file	"D:\Dropbox\TC - 2015\Pesquisas\PIC\5 - Protocolo completo (envio 2x)\LCD_Claudio.
                                 c"
  4182                           	line	28
  4183                           	global	__size_ofi1_Write
  4184  0029                     	__size_ofi1_Write	equ	__end_ofi1_Write-i1_Write
  4185                           	
  4186  0513                     i1_Write:	
  4187 ;; hardware stack exceeded
  4188                           	opt	stack 0
  4189                           ; Regs used in i1_Write: [wreg+status,2+status,0+pclath+cstack]
  4190                           ;i1Write@c stored from wreg
  4191  0513  00F2               	movwf	(i1Write@c)
  4192                           	line	29
  4193                           	
  4194  0514                     i1l3826:	
  4195                           ;LCD_Claudio.c: 29: PORTC&=0XF0;
  4196  0514  30F0               	movlw	(0F0h)
  4197  0515  00F0               	movwf	(??i1_Write+0)+0
  4198  0516  0870               	movf	(??i1_Write+0)+0,w
  4199  0517  1283               	bcf	status, 5	;RP0=0, select bank0
  4200  0518  1303               	bcf	status, 6	;RP1=0, select bank0
  4201  0519  0587               	andwf	(7),f	;volatile
  4202                           	line	30
  4203                           ;LCD_Claudio.c: 30: PORTC|=c >> 4;
  4204  051A  0872               	movf	(i1Write@c),w
  4205  051B  00F0               	movwf	(??i1_Write+0)+0
  4206  051C  3004               	movlw	04h
  4207  051D                     u307_25:
  4208  051D  1003               	clrc
  4209  051E  0CF0               	rrf	(??i1_Write+0)+0,f
  4210  051F  3EFF               	addlw	-1
  4211  0520  1D03               	skipz
  4212  0521  2D1D               	goto	u307_25
  4213  0522  0870               	movf	0+(??i1_Write+0)+0,w
  4214  0523  00F1               	movwf	(??i1_Write+1)+0
  4215  0524  0871               	movf	(??i1_Write+1)+0,w
  4216  0525  0487               	iorwf	(7),f	;volatile
  4217                           	line	31
  4218                           	
  4219  0526                     i1l3828:	
  4220                           ;LCD_Claudio.c: 31: Enable();
  4221  0526  118A  261B  118A   	fcall	i1_Enable
  4222                           	line	32
  4223                           	
  4224  0529                     i1l3830:	
  4225                           ;LCD_Claudio.c: 32: PORTC&=0XF0;
  4226  0529  30F0               	movlw	(0F0h)
  4227  052A  00F0               	movwf	(??i1_Write+0)+0
  4228  052B  0870               	movf	(??i1_Write+0)+0,w
  4229  052C  1283               	bcf	status, 5	;RP0=0, select bank0
  4230  052D  1303               	bcf	status, 6	;RP1=0, select bank0
  4231  052E  0587               	andwf	(7),f	;volatile
  4232                           	line	33
  4233                           	
  4234  052F                     i1l3832:	
  4235                           ;LCD_Claudio.c: 33: PORTC|=(c & 0X0F);
  4236  052F  0872               	movf	(i1Write@c),w
  4237  0530  390F               	andlw	0Fh
  4238  0531  00F0               	movwf	(??i1_Write+0)+0
  4239  0532  0870               	movf	(??i1_Write+0)+0,w
  4240  0533  0487               	iorwf	(7),f	;volatile
  4241                           	line	34
  4242                           	
  4243  0534                     i1l3834:	
  4244                           ;LCD_Claudio.c: 34: Enable();
  4245  0534  118A  261B  118A   	fcall	i1_Enable
  4246                           	line	35
  4247                           	
  4248  0537                     i1l3836:	
  4249                           ;LCD_Claudio.c: 35: _delay((unsigned long)((40)*(4000000/4000000.0)));
  4250                           	opt asmopt_off
  4251  0537  300D               movlw	13
  4252  0538  00F0               movwf	(??i1_Write+0)+0,f
  4253  0539                     u358_27:
  4254  0539  0BF0               decfsz	(??i1_Write+0)+0,f
  4255  053A  2D39               	goto	u358_27
  4256                           opt asmopt_on
  4257                           
  4258                           	line	36
  4259                           	
  4260  053B                     i1l934:	
  4261  053B  0008               	return
  4262                           	opt stack 0
  4263                           GLOBAL	__end_ofi1_Write
  4264  053C                     	__end_ofi1_Write:
  4265 ;; =============== function i1_Write ends ============
  4266                           
  4267                           	signat	i1_Write,88
  4268                           	global	i1_Enable
  4269                           psect	text615,local,class=CODE,delta=2
  4270                           global __ptext615
  4271  061B                     __ptext615:
  4272                           
  4273 ;; *************** function i1_Enable *****************
  4274 ;; Defined at:
  4275 ;;		line 22 in file "D:\Dropbox\TC - 2015\Pesquisas\PIC\5 - Protocolo completo (envio 2x)\LCD_Claudio.c"
  4276 ;; Parameters:    Size  Location     Type
  4277 ;;		None
  4278 ;; Auto vars:     Size  Location     Type
  4279 ;;		None
  4280 ;; Return value:  Size  Location     Type
  4281 ;;		None               void
  4282 ;; Registers used:
  4283 ;;		None
  4284 ;; Tracked objects:
  4285 ;;		On entry : 0/0
  4286 ;;		On exit  : 0/0
  4287 ;;		Unchanged: 0/0
  4288 ;; Data sizes:     COMMON   BANK0   BANK1   BANK2
  4289 ;;      Params:         0       0       0       0
  4290 ;;      Locals:         0       0       0       0
  4291 ;;      Temps:          0       0       0       0
  4292 ;;      Totals:         0       0       0       0
  4293 ;;Total ram usage:        0 bytes
  4294 ;; Hardware stack levels used:    1
  4295 ;; This function calls:
  4296 ;;		Nothing
  4297 ;; This function is called by:
  4298 ;;		i1_Write
  4299 ;; This function uses a non-reentrant model
  4300 ;;
  4301                           psect	text615
  4302                           	file	"D:\Dropbox\TC - 2015\Pesquisas\PIC\5 - Protocolo completo (envio 2x)\LCD_Claudio.
                                 c"
  4303                           	line	22
  4304                           	global	__size_ofi1_Enable
  4305  0008                     	__size_ofi1_Enable	equ	__end_ofi1_Enable-i1_Enable
  4306                           	
  4307  061B                     i1_Enable:	
  4308 ;; hardware stack exceeded
  4309                           	opt	stack 0
  4310                           ; Regs used in i1_Enable: []
  4311                           	line	23
  4312                           	
  4313  061B                     i1l3824:	
  4314                           ;LCD_Claudio.c: 23: RC7=1;
  4315  061B  1283               	bcf	status, 5	;RP0=0, select bank0
  4316  061C  1303               	bcf	status, 6	;RP1=0, select bank0
  4317  061D  1787               	bsf	(63/8),(63)&7
  4318                           	line	24
  4319                           ;LCD_Claudio.c: 24: _delay((unsigned long)((2)*(4000000/4000000.0)));
  4320                           		opt asmopt_off
  4321  061E  2E1F               	nop2	;2 cycle nop
  4322                           	opt asmopt_on
  4323                           
  4324                           	line	25
  4325                           ;LCD_Claudio.c: 25: RC7=0;
  4326  061F  1283               	bcf	status, 5	;RP0=0, select bank0
  4327  0620  1303               	bcf	status, 6	;RP1=0, select bank0
  4328  0621  1387               	bcf	(63/8),(63)&7
  4329                           	line	26
  4330                           	
  4331  0622                     i1l931:	
  4332  0622  0008               	return
  4333                           	opt stack 0
  4334                           GLOBAL	__end_ofi1_Enable
  4335  0623                     	__end_ofi1_Enable:
  4336 ;; =============== function i1_Enable ends ============
  4337                           
  4338                           	signat	i1_Enable,88
  4339                           	global	___lwmod
  4340                           psect	text616,local,class=CODE,delta=2
  4341                           global __ptext616
  4342  0441                     __ptext616:
  4343                           
  4344 ;; *************** function ___lwmod *****************
  4345 ;; Defined at:
  4346 ;;		line 5 in file "C:\Program Files (x86)\HI-TECH Software\PICC\9.83\sources\lwmod.c"
  4347 ;; Parameters:    Size  Location     Type
  4348 ;;  divisor         2    8[COMMON] unsigned int 
  4349 ;;  dividend        2   10[COMMON] unsigned int 
  4350 ;; Auto vars:     Size  Location     Type
  4351 ;;  counter         1   13[COMMON] unsigned char 
  4352 ;; Return value:  Size  Location     Type
  4353 ;;                  2    8[COMMON] unsigned int 
  4354 ;; Registers used:
  4355 ;;		wreg, status,2, status,0
  4356 ;; Tracked objects:
  4357 ;;		On entry : 0/0
  4358 ;;		On exit  : 0/0
  4359 ;;		Unchanged: 0/0
  4360 ;; Data sizes:     COMMON   BANK0   BANK1   BANK2
  4361 ;;      Params:         4       0       0       0
  4362 ;;      Locals:         1       0       0       0
  4363 ;;      Temps:          1       0       0       0
  4364 ;;      Totals:         6       0       0       0
  4365 ;;Total ram usage:        6 bytes
  4366 ;; Hardware stack levels used:    1
  4367 ;; This function calls:
  4368 ;;		Nothing
  4369 ;; This function is called by:
  4370 ;;		_printf
  4371 ;; This function uses a non-reentrant model
  4372 ;;
  4373                           psect	text616
  4374                           	file	"C:\Program Files (x86)\HI-TECH Software\PICC\9.83\sources\lwmod.c"
  4375                           	line	5
  4376                           	global	__size_of___lwmod
  4377  0044                     	__size_of___lwmod	equ	__end_of___lwmod-___lwmod
  4378                           	
  4379  0441                     ___lwmod:	
  4380                           	opt	stack 1
  4381                           ; Regs used in ___lwmod: [wreg+status,2+status,0]
  4382                           	line	8
  4383                           	
  4384  0441                     i1l3802:	
  4385  0441  0879               	movf	(___lwmod@divisor+1),w
  4386  0442  0478               	iorwf	(___lwmod@divisor),w
  4387  0443  1903               	skipnz
  4388  0444  2C46               	goto	u301_21
  4389  0445  2C47               	goto	u301_20
  4390  0446                     u301_21:
  4391  0446  2C7D               	goto	i1l3820
  4392  0447                     u301_20:
  4393                           	line	9
  4394                           	
  4395  0447                     i1l3804:	
  4396  0447  01FD               	clrf	(___lwmod@counter)
  4397  0448  1403               	bsf	status,0
  4398  0449  0DFD               	rlf	(___lwmod@counter),f
  4399                           	line	10
  4400  044A  2C57               	goto	i1l3810
  4401                           	
  4402  044B                     i1l1960:	
  4403                           	line	11
  4404                           	
  4405  044B                     i1l3806:	
  4406  044B  3001               	movlw	01h
  4407                           	
  4408  044C                     u302_25:
  4409  044C  1003               	clrc
  4410  044D  0DF8               	rlf	(___lwmod@divisor),f
  4411  044E  0DF9               	rlf	(___lwmod@divisor+1),f
  4412  044F  3EFF               	addlw	-1
  4413  0450  1D03               	skipz
  4414  0451  2C4C               	goto	u302_25
  4415                           	line	12
  4416                           	
  4417  0452                     i1l3808:	
  4418  0452  3001               	movlw	(01h)
  4419  0453  00FC               	movwf	(??___lwmod+0)+0
  4420  0454  087C               	movf	(??___lwmod+0)+0,w
  4421  0455  07FD               	addwf	(___lwmod@counter),f
  4422  0456  2C57               	goto	i1l3810
  4423                           	line	13
  4424                           	
  4425  0457                     i1l1959:	
  4426                           	line	10
  4427                           	
  4428  0457                     i1l3810:	
  4429  0457  1FF9               	btfss	(___lwmod@divisor+1),(15)&7
  4430  0458  2C5A               	goto	u303_21
  4431  0459  2C5B               	goto	u303_20
  4432  045A                     u303_21:
  4433  045A  2C4B               	goto	i1l3806
  4434  045B                     u303_20:
  4435  045B  2C5D               	goto	i1l3812
  4436                           	
  4437  045C                     i1l1961:	
  4438  045C  2C5D               	goto	i1l3812
  4439                           	line	14
  4440                           	
  4441  045D                     i1l1962:	
  4442                           	line	15
  4443                           	
  4444  045D                     i1l3812:	
  4445  045D  0879               	movf	(___lwmod@divisor+1),w
  4446  045E  027B               	subwf	(___lwmod@dividend+1),w
  4447  045F  1D03               	skipz
  4448  0460  2C63               	goto	u304_25
  4449  0461  0878               	movf	(___lwmod@divisor),w
  4450  0462  027A               	subwf	(___lwmod@dividend),w
  4451  0463                     u304_25:
  4452  0463  1C03               	skipc
  4453  0464  2C66               	goto	u304_21
  4454  0465  2C67               	goto	u304_20
  4455  0466                     u304_21:
  4456  0466  2C6E               	goto	i1l3816
  4457  0467                     u304_20:
  4458                           	line	16
  4459                           	
  4460  0467                     i1l3814:	
  4461  0467  0878               	movf	(___lwmod@divisor),w
  4462  0468  02FA               	subwf	(___lwmod@dividend),f
  4463  0469  0879               	movf	(___lwmod@divisor+1),w
  4464  046A  1C03               	skipc
  4465  046B  03FB               	decf	(___lwmod@dividend+1),f
  4466  046C  02FB               	subwf	(___lwmod@dividend+1),f
  4467  046D  2C6E               	goto	i1l3816
  4468                           	
  4469  046E                     i1l1963:	
  4470                           	line	17
  4471                           	
  4472  046E                     i1l3816:	
  4473  046E  3001               	movlw	01h
  4474                           	
  4475  046F                     u305_25:
  4476  046F  1003               	clrc
  4477  0470  0CF9               	rrf	(___lwmod@divisor+1),f
  4478  0471  0CF8               	rrf	(___lwmod@divisor),f
  4479  0472  3EFF               	addlw	-1
  4480  0473  1D03               	skipz
  4481  0474  2C6F               	goto	u305_25
  4482                           	line	18
  4483                           	
  4484  0475                     i1l3818:	
  4485  0475  3001               	movlw	low(01h)
  4486  0476  02FD               	subwf	(___lwmod@counter),f
  4487  0477  1D03               	btfss	status,2
  4488  0478  2C7A               	goto	u306_21
  4489  0479  2C7B               	goto	u306_20
  4490  047A                     u306_21:
  4491  047A  2C5D               	goto	i1l3812
  4492  047B                     u306_20:
  4493  047B  2C7D               	goto	i1l3820
  4494                           	
  4495  047C                     i1l1964:	
  4496  047C  2C7D               	goto	i1l3820
  4497                           	line	19
  4498                           	
  4499  047D                     i1l1958:	
  4500                           	line	20
  4501                           	
  4502  047D                     i1l3820:	
  4503  047D  087B               	movf	(___lwmod@dividend+1),w
  4504  047E  01F9               	clrf	(?___lwmod+1)
  4505  047F  07F9               	addwf	(?___lwmod+1)
  4506  0480  087A               	movf	(___lwmod@dividend),w
  4507  0481  01F8               	clrf	(?___lwmod)
  4508  0482  07F8               	addwf	(?___lwmod)
  4509                           
  4510  0483  2C84               	goto	i1l1965
  4511                           	
  4512  0484                     i1l3822:	
  4513                           	line	21
  4514                           	
  4515  0484                     i1l1965:	
  4516  0484  0008               	return
  4517                           	opt stack 0
  4518                           GLOBAL	__end_of___lwmod
  4519  0485                     	__end_of___lwmod:
  4520 ;; =============== function ___lwmod ends ============
  4521                           
  4522                           	signat	___lwmod,8314
  4523                           	global	___lwdiv
  4524                           psect	text617,local,class=CODE,delta=2
  4525                           global __ptext617
  4526  03A7                     __ptext617:
  4527                           
  4528 ;; *************** function ___lwdiv *****************
  4529 ;; Defined at:
  4530 ;;		line 5 in file "C:\Program Files (x86)\HI-TECH Software\PICC\9.83\sources\lwdiv.c"
  4531 ;; Parameters:    Size  Location     Type
  4532 ;;  divisor         2    0[COMMON] unsigned int 
  4533 ;;  dividend        2    2[COMMON] unsigned int 
  4534 ;; Auto vars:     Size  Location     Type
  4535 ;;  quotient        2    5[COMMON] unsigned int 
  4536 ;;  counter         1    7[COMMON] unsigned char 
  4537 ;; Return value:  Size  Location     Type
  4538 ;;                  2    0[COMMON] unsigned int 
  4539 ;; Registers used:
  4540 ;;		wreg, status,2, status,0
  4541 ;; Tracked objects:
  4542 ;;		On entry : 0/0
  4543 ;;		On exit  : 0/0
  4544 ;;		Unchanged: 0/0
  4545 ;; Data sizes:     COMMON   BANK0   BANK1   BANK2
  4546 ;;      Params:         4       0       0       0
  4547 ;;      Locals:         3       0       0       0
  4548 ;;      Temps:          1       0       0       0
  4549 ;;      Totals:         8       0       0       0
  4550 ;;Total ram usage:        8 bytes
  4551 ;; Hardware stack levels used:    1
  4552 ;; This function calls:
  4553 ;;		Nothing
  4554 ;; This function is called by:
  4555 ;;		_printf
  4556 ;; This function uses a non-reentrant model
  4557 ;;
  4558                           psect	text617
  4559                           	file	"C:\Program Files (x86)\HI-TECH Software\PICC\9.83\sources\lwdiv.c"
  4560                           	line	5
  4561                           	global	__size_of___lwdiv
  4562  004E                     	__size_of___lwdiv	equ	__end_of___lwdiv-___lwdiv
  4563                           	
  4564  03A7                     ___lwdiv:	
  4565                           	opt	stack 1
  4566                           ; Regs used in ___lwdiv: [wreg+status,2+status,0]
  4567                           	line	9
  4568                           	
  4569  03A7                     i1l3776:	
  4570  03A7  01F5               	clrf	(___lwdiv@quotient)
  4571  03A8  01F6               	clrf	(___lwdiv@quotient+1)
  4572                           	line	10
  4573                           	
  4574  03A9                     i1l3778:	
  4575  03A9  0871               	movf	(___lwdiv@divisor+1),w
  4576  03AA  0470               	iorwf	(___lwdiv@divisor),w
  4577  03AB  1903               	skipnz
  4578  03AC  2BAE               	goto	u294_21
  4579  03AD  2BAF               	goto	u294_20
  4580  03AE                     u294_21:
  4581  03AE  2BED               	goto	i1l3798
  4582  03AF                     u294_20:
  4583                           	line	11
  4584                           	
  4585  03AF                     i1l3780:	
  4586  03AF  01F7               	clrf	(___lwdiv@counter)
  4587  03B0  1403               	bsf	status,0
  4588  03B1  0DF7               	rlf	(___lwdiv@counter),f
  4589                           	line	12
  4590  03B2  2BBF               	goto	i1l3786
  4591                           	
  4592  03B3                     i1l1950:	
  4593                           	line	13
  4594                           	
  4595  03B3                     i1l3782:	
  4596  03B3  3001               	movlw	01h
  4597                           	
  4598  03B4                     u295_25:
  4599  03B4  1003               	clrc
  4600  03B5  0DF0               	rlf	(___lwdiv@divisor),f
  4601  03B6  0DF1               	rlf	(___lwdiv@divisor+1),f
  4602  03B7  3EFF               	addlw	-1
  4603  03B8  1D03               	skipz
  4604  03B9  2BB4               	goto	u295_25
  4605                           	line	14
  4606                           	
  4607  03BA                     i1l3784:	
  4608  03BA  3001               	movlw	(01h)
  4609  03BB  00F4               	movwf	(??___lwdiv+0)+0
  4610  03BC  0874               	movf	(??___lwdiv+0)+0,w
  4611  03BD  07F7               	addwf	(___lwdiv@counter),f
  4612  03BE  2BBF               	goto	i1l3786
  4613                           	line	15
  4614                           	
  4615  03BF                     i1l1949:	
  4616                           	line	12
  4617                           	
  4618  03BF                     i1l3786:	
  4619  03BF  1FF1               	btfss	(___lwdiv@divisor+1),(15)&7
  4620  03C0  2BC2               	goto	u296_21
  4621  03C1  2BC3               	goto	u296_20
  4622  03C2                     u296_21:
  4623  03C2  2BB3               	goto	i1l3782
  4624  03C3                     u296_20:
  4625  03C3  2BC5               	goto	i1l3788
  4626                           	
  4627  03C4                     i1l1951:	
  4628  03C4  2BC5               	goto	i1l3788
  4629                           	line	16
  4630                           	
  4631  03C5                     i1l1952:	
  4632                           	line	17
  4633                           	
  4634  03C5                     i1l3788:	
  4635  03C5  3001               	movlw	01h
  4636                           	
  4637  03C6                     u297_25:
  4638  03C6  1003               	clrc
  4639  03C7  0DF5               	rlf	(___lwdiv@quotient),f
  4640  03C8  0DF6               	rlf	(___lwdiv@quotient+1),f
  4641  03C9  3EFF               	addlw	-1
  4642  03CA  1D03               	skipz
  4643  03CB  2BC6               	goto	u297_25
  4644                           	line	18
  4645  03CC  0871               	movf	(___lwdiv@divisor+1),w
  4646  03CD  0273               	subwf	(___lwdiv@dividend+1),w
  4647  03CE  1D03               	skipz
  4648  03CF  2BD2               	goto	u298_25
  4649  03D0  0870               	movf	(___lwdiv@divisor),w
  4650  03D1  0272               	subwf	(___lwdiv@dividend),w
  4651  03D2                     u298_25:
  4652  03D2  1C03               	skipc
  4653  03D3  2BD5               	goto	u298_21
  4654  03D4  2BD6               	goto	u298_20
  4655  03D5                     u298_21:
  4656  03D5  2BDE               	goto	i1l3794
  4657  03D6                     u298_20:
  4658                           	line	19
  4659                           	
  4660  03D6                     i1l3790:	
  4661  03D6  0870               	movf	(___lwdiv@divisor),w
  4662  03D7  02F2               	subwf	(___lwdiv@dividend),f
  4663  03D8  0871               	movf	(___lwdiv@divisor+1),w
  4664  03D9  1C03               	skipc
  4665  03DA  03F3               	decf	(___lwdiv@dividend+1),f
  4666  03DB  02F3               	subwf	(___lwdiv@dividend+1),f
  4667                           	line	20
  4668                           	
  4669  03DC                     i1l3792:	
  4670  03DC  1475               	bsf	(___lwdiv@quotient)+(0/8),(0)&7
  4671  03DD  2BDE               	goto	i1l3794
  4672                           	line	21
  4673                           	
  4674  03DE                     i1l1953:	
  4675                           	line	22
  4676                           	
  4677  03DE                     i1l3794:	
  4678  03DE  3001               	movlw	01h
  4679                           	
  4680  03DF                     u299_25:
  4681  03DF  1003               	clrc
  4682  03E0  0CF1               	rrf	(___lwdiv@divisor+1),f
  4683  03E1  0CF0               	rrf	(___lwdiv@divisor),f
  4684  03E2  3EFF               	addlw	-1
  4685  03E3  1D03               	skipz
  4686  03E4  2BDF               	goto	u299_25
  4687                           	line	23
  4688                           	
  4689  03E5                     i1l3796:	
  4690  03E5  3001               	movlw	low(01h)
  4691  03E6  02F7               	subwf	(___lwdiv@counter),f
  4692  03E7  1D03               	btfss	status,2
  4693  03E8  2BEA               	goto	u300_21
  4694  03E9  2BEB               	goto	u300_20
  4695  03EA                     u300_21:
  4696  03EA  2BC5               	goto	i1l3788
  4697  03EB                     u300_20:
  4698  03EB  2BED               	goto	i1l3798
  4699                           	
  4700  03EC                     i1l1954:	
  4701  03EC  2BED               	goto	i1l3798
  4702                           	line	24
  4703                           	
  4704  03ED                     i1l1948:	
  4705                           	line	25
  4706                           	
  4707  03ED                     i1l3798:	
  4708  03ED  0876               	movf	(___lwdiv@quotient+1),w
  4709  03EE  01F1               	clrf	(?___lwdiv+1)
  4710  03EF  07F1               	addwf	(?___lwdiv+1)
  4711  03F0  0875               	movf	(___lwdiv@quotient),w
  4712  03F1  01F0               	clrf	(?___lwdiv)
  4713  03F2  07F0               	addwf	(?___lwdiv)
  4714                           
  4715  03F3  2BF4               	goto	i1l1955
  4716                           	
  4717  03F4                     i1l3800:	
  4718                           	line	26
  4719                           	
  4720  03F4                     i1l1955:	
  4721  03F4  0008               	return
  4722                           	opt stack 0
  4723                           GLOBAL	__end_of___lwdiv
  4724  03F5                     	__end_of___lwdiv:
  4725 ;; =============== function ___lwdiv ends ============
  4726                           
  4727                           	signat	___lwdiv,8314
  4728                           psect	text618,local,class=CODE,delta=2
  4729                           global __ptext618
  4730  0000                     __ptext618:
  4731                           	global	btemp
  4732  007E                     	btemp set 07Eh
  4733                           
  4734                           	DABS	1,126,2	;btemp
  4735                           	global	wtemp0
  4736  007E                     	wtemp0 set btemp


HI-TECH Software PICC Macro Assembler V9.83 build 10920 
Symbol Table                                                                                   Tue Nov 17 17:51:28 2015

                   pc 0002                    _RD 0C60                    _WR 0C61                    fsr 0004  
         _protocol_bt 055D                   l931 061A                   l934 04E7                   l960 0356  
                 l937 05B8                   l971 0569                   l972 057A                   l973 0579  
                 l966 05FD                   l974 057A                   l967 05FF                   l991 0612  
                 l983 055C                   l968 05FF                   l986 04FE                   l994 01BA  
                 l987 0501                   l995 0014                   _GIE 005F                   l988 0512  
                 l996 01C8                   l997 0018                   l998 001C                   l999 0020  
                 _RA4 002C                   _RC6 003E                   _RC7 003F                   _PR2 0092  
                 _RX9 00C6                   _TX9 04C6                   _env 0504                   fsr0 0004  
                 indf 0000           lcd_goto@pos 0073                  S4076 0485                  l1000 0024  
                l1001 003C                  l1010 00E6                  l1002 0054                  l1011 00EB  
                l1003 006C                  l1020 0160                  l1012 00F0                  l1004 0084  
                l1021 0178                  l1013 00F4                  l1005 009C                  l1022 0190  
                l1014 00F8                  l1006 00B4                  l1023 01A8                  l1015 00FC  
                l1007 00CC                  l1040 0591                  l1024 01CB                  l1016 0100  
                l1008 00DA                  l1017 0118                  l1009 00E1                  l1018 0130  
                l1050 02FE                  l1043 05F4                  l1019 0148                  l1051 02FF  
                l1052 0300                  l1037 05D9                  l1053 0300                  l1046 02D2  
                l1047 02DB                  l1048 02EA                  l1049 02E9                  l4000 033D  
                l4010 034F                  l4002 033E                  l4012 0353                  l4004 0341  
                l4020 02B2                  l4006 0347                  l4030 02BE                  l4022 02B3  
                l4014 02A6                  l4008 034B                  l4040 02D8                  l4032 02C1  
                l4024 02B4                  l4016 02AA                  l4050 02F3                  l4042 02E1  
                l4034 02C4                  l4026 02B9                  l4018 02AD                  l4052 02F9  
                l4044 02E5                  l4036 02C7                  l4028 02BB                  l4054 02FA  
                l4046 02EA                  l4038 02D2                  l4048 02F0                  l3900 0068  
                l3750 05D8                  l3742 05CA                  l3910 009C                  l3902 006C  
                l3664 05F5                  l3672 060A                  l3744 05CE                  l3760 0586  
                l3752 057B                  l3920 00DA                  l3912 00B0                  l3904 0080  
                l3666 05FB                  l3746 05D2                  l3770 058D                  l3762 0589  
                l3754 0580                  l3850 0569                  l3930 00F4                  l3922 00E1  
                l3914 00B4                  l3906 0084                  l3748 05D6                  l3772 0590  
                l3764 058A                  l3756 0581                  l3844 0613                  l3852 0575  
                l3860 04F3                  l3940 0118                  l3932 00F8                  l3924 00E6  
                l3916 00C8                  l3908 0098                  l3766 058B                  l3758 0583  
                l3774 05E9                  l3846 055D                  l3854 053C                  l3862 04F9  
                l3870 04D0                  l3950 015C                  l3942 012C                  l3934 00FC  
                l3926 00EB                  l3918 00D6                  l3768 058C                  l3848 0565  
                l3856 0558                  l3864 04FE                  l3872 04D3                  l3960 0190  
                l3952 0160                  l3944 0130                  l3936 0100                  l3928 00F0  
                l3880 0013                  l3866 050E                  l3858 04E8                  l3874 04D9  
                l3962 01A4                  l3954 0174                  l3946 0144                  l3938 0114  
                l3890 0024                  l3882 0014                  l3970 01BA                  l3876 04DE  
                l3868 04C0                  l3964 01B2                  l3956 0178                  l3948 0148  
                l3892 0038                  l3884 0018                  l3980 05AD                  l3878 04E1  
                l3966 01B5                  l3958 018C                  l3894 003C                  l3886 001C  
                l3990 031A                  l3982 0302                  l3968 01B9                  l3896 0050  
                l3888 0020                  l3976 05A6                  l3992 0324                  l3984 030D  
                l3898 0054                  l3978 05A9                  l3994 032A                  l3986 0313  
                l3996 0331                  l3988 0317                  l3998 0337                  STR_1 05A2  
                _BRGH 04C2                  _CREN 00C4                  _FERR 00C2                  u3100 04F9  
                u3101 04F8                  u3115 04C7                  u3205 0089                  u3125 0029  
                u3215 0098                  u3135 0038                  u3080 0565                  u3081 0564  
                u3305 012C                  u3225 00A1                  u3145 0041                  u3090 0575  
                u3091 0574                  u3315 0135                  u3235 00B0                  u3155 0050  
                u3420 02D8                  u3405 01A4                  u3325 0144                  u3245 00B9  
                u3165 0059                  u3430 02E1                  u3415 01B2                  u3335 014D  
                u3255 00C8                  u3175 0068                  u3431 02E0                  u3440 02E5  
                u3345 015C                  u3265 00D6                  u3185 0071                  u3441 02E4  
                u3450 02F0                  u3355 0165                  u3275 0105                  u3195 0080  
                u3507 0345                  u3451 02EF                  u3365 0174                  u3285 0114  
                u3517 05B3                  u3527 04E5                  u3375 017D                  u3295 011D  
                u3537 04EE                  u3385 018C                  u3547 0505                  u3395 0195  
                u3467 02CD                  _PEIE 005E                  u3557 0542                  u3477 0308  
                u2790 05FB                  _INTF 0059                  u2791 05FA                  u3567 054F  
                u3487 0320                  u3497 0335                  _RCIE 0465                  _RCIF 0065  
                _OERR 00C1                  _TMR2 0011                  _SPEN 00C7                  _TXIE 0464  
                _WREN 0C62                  _TXEN 04C5                  _SYNC 04C4       __end_of_T2_init 05DA  
     __end_ofi1_Clear 05CA                  _flag 0042                  _main 02A6                  _init 05E9  
                _lixo 0043                  _send 0013                  btemp 007E       __end_ofi1_Write 053C  
                start 0011                 ?_main 0070                 ?_init 0070                 _EEADR 010D  
               ?_send 0070                 _BRG16 04DB                 _CARRY 0018                 _ANSEL 011E  
               _T2CON 0012       __end_of_acao_bt 0600       __end_of___lwdiv 03F5       __end_of___lwmod 0485  
               i1l931 0622                 i1l934 053B                 i1l950 0362                 i1l951 036A  
               i1l952 0380                 i1l937 05C9                 i1l953 038C                 i1l946 0395  
               i1l954 03A6                 i1l947 0359                 i1l963 0628                 i1l948 03A6  
               i1l957 0609                 i1l949 035D                 _RCREG 001A                 _SPBRG 0099  
               _PORTA 0005                 _PORTB 0006                 _PORTC 0007                 _TRISA 0085  
               _TRISB 0086                 _TRISC 0087                 _Clear 05A6      __end_ofi1_Enable 0623  
               _Write 04BD                 _cycle 003E                 _scode 053C                 _testa 050A  
               _putch 0623                 _start 0509                 pclath 000A                 status 0003  
               wtemp0 007E          __end_of_main 0302          __end_of_init 05F5          __end_of_send 01CC  
              ??_main 003B                ??_init 0034                ??_send 0036                ?_Clear 0070  
              ?_Write 0070             ??_T2_init 0034             ??i1_Clear 0073                _EEDATA 010C  
              _CCPR1L 0015                ?_scode 0070                _EECON1 018C                _EECON2 018D  
           ??i1_Write 0070                ?_putch 0070                _ANSELH 011F                i1l1030 0417  
              i1l1031 0432                i1l1032 041E                i1l1033 0431                i1l1034 0435  
              i1l1027 0401                i1l1028 0400                i1l1029 0435                i1l1070 01E2  
              i1l1071 01E3                i1l1064 0291                i1l1080 0254                i1l1072 01F9  
              i1l1081 0290                i1l1073 01E4                i1l1065 01D4                i1l1082 02A4  
              i1l1074 0213                i1l1066 01DF                i1l1075 021E                i1l1067 01E6  
              i1l1083 02A5                i1l1076 0242                i1l1068 01E1                i1l1069 02A5  
              i1l1077 0237                i1l1078 024D                i1l1079 0283                i1l3700 01DA  
              i1l1950 03B3                i1l3710 0205                i1l3702 01E5                i1l1951 03C4  
              i1l3800 03F4                i1l1952 03C5                i1l1960 044B                i1l3640 035D  
              i1l3720 021D                i1l3712 0209                i1l3704 01E6                i1l1953 03DE  
              i1l1961 045C                i1l1954 03EC                i1l1962 045D                i1l3810 0457  
              i1l3802 0441                i1l3650 0383                i1l3642 0365                i1l3730 0242  
              i1l3722 021E                i1l3714 020D                i1l3706 01F9                i1l1955 03F4  
              i1l1963 046E                i1l1948 03ED                i1l1964 047C                i1l3812 045D  
              i1l3804 0447                i1l3820 047D                i1l3660 0604                i1l3652 038F  
              i1l3644 036D                i1l3636 0358                i1l3732 0248                i1l3724 0236  
              i1l3716 0213                i1l3708 0201                i1l3740 0291                i1l1949 03BF  
              i1l1965 0484                i1l3822 0484                i1l1958 047D                i1l3814 0467  
              i1l3806 044B                i1l3830 0529                i1l3654 0394                i1l3646 0371  
              i1l3638 0359                i1l3662 0624                i1l3734 024D                i1l3726 0237  
              i1l3718 0216                i1l1959 0457                u300_20 03EB                i1l3816 046E  
              i1l3808 0452                i1l3824 061B                i1l3832 052F                i1l3840 05BC  
              i1l3648 0378                i1l3656 0395                i1l3736 0254                i1l3728 023B  
              i1l3680 0406                u300_21 03EA                i1l3818 0475                i1l3834 0534  
              i1l3826 0514                i1l3658 0601                i1l3842 05C0                i1l3738 0283  
              i1l3690 0422                i1l3682 040C                i1l3674 03F5                i1l3780 03AF  
              i1l3836 0537                i1l3828 0526                i1l3692 042D                i1l3684 0412  
              i1l3676 03F9                i1l3790 03D6                i1l3782 03B3                i1l3838 05B9  
              i1l3686 041B                i1l3694 0432                i1l3678 03FD                i1l3792 03DC  
              i1l3784 03BA                i1l3776 03A7                u301_20 0447                i1l3696 01CF  
              i1l3688 041E                u301_21 0446                i1l3794 03DE                i1l3786 03BF  
              i1l3778 03A9                i1l3698 01D4                i1l3796 03E5                i1l3788 03C5  
              i1l3798 03ED                u302_25 044C                u303_20 045B                u303_21 045A  
              u304_20 0467                u304_21 0466                u304_25 0463                _INTCON 000B  
              u305_25 046F                u306_20 047B                u306_21 047A                u307_25 051D  
              u280_20 03F9                u280_21 03F8                u281_20 03FD                u290_20 0241  
              u282_20 0406                u290_21 0240                u282_21 0405                u291_20 0248  
              u283_20 040C                u291_21 0247                u283_21 040B                u292_20 028F  
              u284_20 0412                u292_21 028E                u284_21 0411                u293_20 02A3  
              u285_20 041B                u293_21 02A2                u285_21 041A                u357_27 05C4  
              u294_20 03AF                u286_20 01DA                u294_21 03AE                u286_21 01D9  
              u358_27 0539                u287_20 0209                u287_21 0208                u295_25 03B4  
              u296_20 03C3                u288_20 021C                u296_21 03C2                u288_21 021B  
              u289_20 0235                u289_21 0234                u297_25 03C6                u289_25 0231  
              u298_20 03D6                _OSCCON 008F                u298_21 03D5                u298_25 03D2  
              u299_25 03DF                _SPBRGH 009A                _TMR2ON 0092                _Enable 0613  
        ?_serial_init 0070      __end_of_lcd_init 0357      __end_of_lcd_goto 060A      __end_of_lcd_putc 03A7  
              Write@c 0036                _bit_tx 0500             ??_acao_bt 0034             ??___lwdiv 0074  
           ??___lwmod 007C                _bt_use 0501                _enviar 0506                _printf 01CC  
              saved_w 007E      __end_of_test_bit 0513                putch@c 0076         __end_of_Clear 05B9  
      __pcstackCOMMON 0070         __end_of_Write 04E8             ?i1_Enable 0070         __end_of_scode 055D  
       __end_of_putch 0629          ?_protocol_bt 0070    __size_of_end_cycle 0009               ??_Clear 0037  
             ??_Write 0034               ??_scode 0034               ??_putch 0076            __pbssBANK0 003D  
             ?_Enable 0070            __pmaintext 02A6            ??i1_Enable 0070            __pintentry 0004  
             _CCP1CON 0017               ?_printf 0020               _T2_init 05CA               i1_Clear 05B9  
           ?_lcd_init 0070             ?_lcd_goto 0070             ?_lcd_putc 0070               i1_Write 0513  
     __size_of_Enable 0008     __end_of_end_cycle 0613             ?_test_bit 0070               _acao_bt 05F5  
             ___lwdiv 03A7               ___lwmod 0441  __size_of_serial_init 0017               _dado_rx 003F  
             _dado_tx 0041       __size_of_printf 00DA               _dpowers 0598            _interrupts 03F5  
          ??_lcd_init 0039            ??_lcd_goto 0073            ??_lcd_putc 0075  end_of_initialization 05E6  
             printf@c 002D               printf@f 0027            ??_test_bit 0034  __size_of_protocol_bt 001E  
          _start_cont 0044        __end_of_Enable 061B     __size_ofi1_Enable 0008         __pbitbssBANK1 0500  
      __end_of_printf 02A6   start_initialization 05DA           ?_interrupts 0070              ??_Enable 0034  
            ??_printf 0022         __pcstackBANK0 0020              ?_T2_init 0070              ?i1_Clear 0070  
            ?i1_Write 0070     __size_of_lcd_init 0055     __size_of_lcd_goto 000A     __size_of_lcd_putc 0050  
    ___lwdiv@dividend 0072   __size_of_interrupts 004C             __ptext600 053C             __ptext601 055D  
           __ptext610 0623             __ptext602 0613             __ptext611 0357             __ptext603 05E9  
           __ptext612 05B9             __ptext604 057B             __ptext613 0600             __ptext605 05CA  
           __ptext614 0513             __ptext606 060A             __ptext615 061B             __ptext607 05F5  
           __ptext616 0441             __ptext608 03F5             __ptext617 03A7             __ptext609 01CC  
           __ptext618 0000             __ptext595 0302             __ptext596 05A6             __ptext597 0013  
           __ptext598 04BD             __ptext599 04E8             _end_cycle 060A              ?_acao_bt 0070  
            ?___lwdiv 0070              ?___lwmod 0078     __size_of_test_bit 002B             __pstrings 0592  
           __pswtext1 0485        __size_of_Clear 0013        __size_of_Write 002B             _byte_done 0502  
           _byte_cont 003D      ___lwdiv@quotient 0075        __size_of_scode 0021        __size_of_putch 0006  
           _recebendo 0507     interrupt_function 0004         ??_serial_init 0034              i1_Enable 061B  
          ?_end_cycle 0070           __stringbase 0597              i1Write@c 0072            printf@_val 0029  
          printf@flag 0026            printf@prec 0028             lcd_putc@c 0075      __size_of_T2_init 0010  
    __size_ofi1_Clear 0011      __size_ofi1_Write 0029      __size_of_acao_bt 000B      __size_of___lwdiv 004E  
    __size_of___lwmod 0044         ??_protocol_bt 0034   __end_of_serial_init 0592              _dado_rx0 0040  
     ___lwdiv@divisor 0070          ??_interrupts 002E       ___lwdiv@counter 0077              _lcd_init 0302  
            _lcd_goto 0600              _lcd_putc 0357           _recebeu_bit 0508              _enviando 0505  
       __size_of_main 005C         __size_of_init 000C         __size_of_send 01B9              _test_bit 04E8  
         ??_end_cycle 0034    __end_of_interrupts 0441         _end_startcode 0503   __end_of_protocol_bt 057B  
            intlevel1 0000      ___lwmod@dividend 007A             stringcode 0592           _serial_init 057B  
            printf@ap 0025       ___lwmod@divisor 0078       ___lwmod@counter 007D              stringdir 0592  
            stringtab 0592  
