

HI-TECH Software PIC LITE Macro Assembler V9.83 build 10920 
                                                                                               Tue Nov 17 16:45:39 2015

HI-TECH Software Omniscient Code Generator (Lite mode) build 10920
     1  0000                     opt subtitle "HI-TECH Software Omniscient Code Generator (Lite mode) build 10920"
     2                           
     3                           opt pagewidth 120
     4                           
     5                           	opt lm
     6                           
     7                           	processor	16F690
     8                           clrc	macro
     9                           	bcf	3,0
    10  0000                     	endm
    11                           clrz	macro
    12                           	bcf	3,2
    13  0000                     	endm
    14                           setc	macro
    15                           	bsf	3,0
    16  0000                     	endm
    17                           setz	macro
    18                           	bsf	3,2
    19  0000                     	endm
    20                           skipc	macro
    21                           	btfss	3,0
    22  0000                     	endm
    23                           skipz	macro
    24                           	btfss	3,2
    25  0000                     	endm
    26                           skipnc	macro
    27                           	btfsc	3,0
    28  0000                     	endm
    29                           skipnz	macro
    30                           	btfsc	3,2
    31  0000                     	endm
    32  0000                     indf	equ	0
    33  0000                     indf0	equ	0
    34  0002                     pc	equ	2
    35  0002                     pcl	equ	2
    36  0003                     status	equ	3
    37  0004                     fsr	equ	4
    38  0004                     fsr0	equ	4
    39  0001                     c	equ	1
    40  0000                     z	equ	0
    41  000A                     pclath	equ	10
    42                           # 4 "D:\Dropbox\TC - 2015\Pesquisas\PIC\8 - Dispositivo 1\Dispositivo_1.c"
    43                           	psect config,class=CONFIG,delta=2 ;#
    44                           # 4 "D:\Dropbox\TC - 2015\Pesquisas\PIC\8 - Dispositivo 1\Dispositivo_1.c"
    45  2007  FFE4               	dw 0xFFFC & 0xFFF7 & 0xFFEF & 0xFFFF ;#
    46                           	FNCALL	_main,_T1_init
    47                           	FNCALL	_main,_T2_init
    48                           	FNCALL	_main,_serial_init
    49                           	FNCALL	_main,_lcd_init
    50                           	FNCALL	_main,_protocol
    51                           	FNCALL	_main,_send
    52                           	FNCALL	_lcd_init,_Enable
    53                           	FNCALL	_lcd_init,_Write
    54                           	FNCALL	_lcd_init,_Clear
    55                           	FNCALL	_Clear,_Write
    56                           	FNCALL	_Write,_Enable
    57                           	FNROOT	_main
    58                           	FNCALL	_interrupts,_printf
    59                           	FNCALL	_printf,_putch
    60                           	FNCALL	_printf,___lwdiv
    61                           	FNCALL	_printf,___lwmod
    62                           	FNCALL	_putch,_lcd_putc
    63                           	FNCALL	_lcd_putc,i1_Clear
    64                           	FNCALL	_lcd_putc,_lcd_goto
    65                           	FNCALL	_lcd_putc,i1_Write
    66                           	FNCALL	_lcd_putc,_lcd_putc
    67                           	FNCALL	i1_Clear,i1_Write
    68                           	FNCALL	_lcd_goto,i1_Write
    69                           	FNCALL	i1_Write,i1_Enable
    70                           	FNCALL	intlevel1,_interrupts
    71                           	global	intlevel1
    72                           	FNROOT	intlevel1
    73                           	global	_dpowers
    74                           psect	strings,class=STRING,delta=2
    75                           global __pstrings
    76  039C                     __pstrings:
    77                           ;	global	stringdir,stringtab,__stringbase
    78  039C                     stringtab:
    79                           ;	String table - string pointers are 1 byte each
    80  039C                     stringcode:stringdir:
      + 039C                     stringdir:	
    81  039C  3003               movlw high(stringdir)
    82  039D  008A               movwf pclath
    83  039E  0804               movf fsr,w
    84  039F  0A84               incf fsr
    85  03A0  0782               	addwf pc
    86  03A1                     __stringbase:
    87  03A1  3400               	retlw	0
    88                           psect	strings
    89                           	file	"C:\Program Files (x86)\HI-TECH Software\PICC\9.83\sources\doprnt.c"
    90                           	line	350
    91  03A2                     _dpowers:
    92  03A2  3401               	retlw	01h
    93  03A3  3400               	retlw	0
    94                           
    95  03A4  340A               	retlw	0Ah
    96  03A5  3400               	retlw	0
    97                           
    98  03A6  3464               	retlw	064h
    99  03A7  3400               	retlw	0
   100                           
   101  03A8  34E8               	retlw	0E8h
   102  03A9  3403               	retlw	03h
   103                           
   104  03AA  3410               	retlw	010h
   105  03AB  3427               	retlw	027h
   106                           
   107                           	global	_dpowers
   108                           	global	_cont
   109                           	global	_dado_rx
   110                           	global	_enviando
   111                           	global	_enviar
   112                           	global	_flag
   113                           	global	_lixo
   114                           	global	_bt_flag
   115                           	global	_recebeu
   116                           	global	_testa
   117                           	global	_TMR1
   118  000E                     _TMR1	set	14
   119                           	global	_CCP1CON
   120  0017                     _CCP1CON	set	23
   121                           	global	_CCPR1L
   122  0015                     _CCPR1L	set	21
   123                           	global	_INTCON
   124  000B                     _INTCON	set	11
   125                           	global	_PORTA
   126  0005                     _PORTA	set	5
   127                           	global	_PORTB
   128  0006                     _PORTB	set	6
   129                           	global	_PORTC
   130  0007                     _PORTC	set	7
   131                           	global	_RCREG
   132  001A                     _RCREG	set	26
   133                           	global	_T1CON
   134  0010                     _T1CON	set	16
   135                           	global	_T2CON
   136  0012                     _T2CON	set	18
   137                           	global	_TMR2
   138  0011                     _TMR2	set	17
   139                           	global	_CARRY
   140  0018                     _CARRY	set	24
   141                           	global	_CREN
   142  00C4                     _CREN	set	196
   143                           	global	_FERR
   144  00C2                     _FERR	set	194
   145                           	global	_GIE
   146  005F                     _GIE	set	95
   147                           	global	_INTF
   148  0059                     _INTF	set	89
   149                           	global	_OERR
   150  00C1                     _OERR	set	193
   151                           	global	_PEIE
   152  005E                     _PEIE	set	94
   153                           	global	_RA4
   154  002C                     _RA4	set	44
   155                           	global	_RC6
   156  003E                     _RC6	set	62
   157                           	global	_RC7
   158  003F                     _RC7	set	63
   159                           	global	_RCIF
   160  0065                     _RCIF	set	101
   161                           	global	_RX9
   162  00C6                     _RX9	set	198
   163                           	global	_SPEN
   164  00C7                     _SPEN	set	199
   165                           	global	_TMR1IF
   166  0060                     _TMR1IF	set	96
   167                           	global	_TMR1ON
   168  0080                     _TMR1ON	set	128
   169                           	global	_TMR2ON
   170  0092                     _TMR2ON	set	146
   171                           	global	_OSCCON
   172  008F                     _OSCCON	set	143
   173                           	global	_PR2
   174  0092                     _PR2	set	146
   175                           	global	_SPBRG
   176  0099                     _SPBRG	set	153
   177                           	global	_SPBRGH
   178  009A                     _SPBRGH	set	154
   179                           	global	_TRISA
   180  0085                     _TRISA	set	133
   181                           	global	_TRISB
   182  0086                     _TRISB	set	134
   183                           	global	_TRISC
   184  0087                     _TRISC	set	135
   185                           	global	_BRG16
   186  04DB                     _BRG16	set	1243
   187                           	global	_BRGH
   188  04C2                     _BRGH	set	1218
   189                           	global	_INTEDG
   190  040E                     _INTEDG	set	1038
   191                           	global	_RCIE
   192  0465                     _RCIE	set	1125
   193                           	global	_SYNC
   194  04C4                     _SYNC	set	1220
   195                           	global	_TMR1IE
   196  0460                     _TMR1IE	set	1120
   197                           	global	_TX9
   198  04C6                     _TX9	set	1222
   199                           	global	_TXEN
   200  04C5                     _TXEN	set	1221
   201                           	global	_TXIE
   202  0464                     _TXIE	set	1124
   203                           	global	_ANSEL
   204  011E                     _ANSEL	set	286
   205                           	global	_ANSELH
   206  011F                     _ANSELH	set	287
   207                           	global	_EEADR
   208  010D                     _EEADR	set	269
   209                           	global	_EEDATA
   210  010C                     _EEDATA	set	268
   211                           	global	_EECON1
   212  018C                     _EECON1	set	396
   213                           	global	_EECON2
   214  018D                     _EECON2	set	397
   215                           	global	_RD
   216  0C60                     _RD	set	3168
   217                           	global	_WR
   218  0C61                     _WR	set	3169
   219                           	global	_WREN
   220  0C62                     _WREN	set	3170
   221                           	
   222  03AC                     STR_1:	
   223  03AC  340C               	retlw	12
   224  03AD  3425               	retlw	37	;'%'
   225  03AE  3464               	retlw	100	;'d'
   226  03AF  3400               	retlw	0
   227                           psect	strings
   228                           	file	"Dispositivo_1.as"
   229                           	line	#
   230                           psect cinit,class=CODE,delta=2
   231                           global start_initialization
   232  03F3                     start_initialization:
   233                           
   234                           psect	bssBANK0,class=BANK0,space=1
   235                           global __pbssBANK0
   236  003D                     __pbssBANK0:
   237  003D                     _cont:
   238  003D                            ds      1
   239                           
   240  003E                     _dado_rx:
   241  003E                            ds      1
   242                           
   243  003F                     _enviando:
   244  003F                            ds      1
   245                           
   246  0040                     _enviar:
   247  0040                            ds      1
   248                           
   249  0041                     _flag:
   250  0041                            ds      1
   251                           
   252  0042                     _lixo:
   253  0042                            ds      1
   254                           
   255                           psect	bitbssBANK1,class=BANK1,bit,space=1
   256                           global __pbitbssBANK1
   257  0500                     __pbitbssBANK1:
   258  0500                     _bt_flag:
   259  0500                            ds      1
   260                           
   261  0501                     _recebeu:
   262  0501                            ds      1
   263                           
   264  0502                     _testa:
   265  0502                            ds      1
   266                           
   267                           ; Clear objects allocated to BANK0
   268                           psect cinit,class=CODE,delta=2
   269  03F3  01BD               	clrf	((__pbssBANK0)+0)&07Fh
   270  03F4  01BE               	clrf	((__pbssBANK0)+1)&07Fh
   271  03F5  01BF               	clrf	((__pbssBANK0)+2)&07Fh
   272  03F6  01C0               	clrf	((__pbssBANK0)+3)&07Fh
   273  03F7  01C1               	clrf	((__pbssBANK0)+4)&07Fh
   274  03F8  01C2               	clrf	((__pbssBANK0)+5)&07Fh
   275                           ; Clear objects allocated to BITBANK1
   276                           psect cinit,class=CODE,delta=2
   277  03F9  1683               	bsf	status, 5	;RP0=1, select bank1
   278  03FA  1303               	bcf	status, 6	;RP1=0, select bank1
   279  03FB  01A0               	clrf	((__pbitbssBANK1/8)+0)&07Fh
   280                           psect cinit,class=CODE,delta=2
   281                           global end_of_initialization
   282                           
   283                           ;End of C runtime variable initialization code
   284                           
   285  03FC                     end_of_initialization:
   286  03FC  0183               clrf status
   287  03FD  118A  2A58         ljmp _main	;jump to C main() function
   288                           psect	cstackCOMMON,class=COMMON,space=1
   289                           global __pcstackCOMMON
   290  0070                     __pcstackCOMMON:
   291                           	global	?_lcd_goto
   292  0070                     ?_lcd_goto:	; 0 bytes @ 0x0
   293                           	global	?_Enable
   294  0070                     ?_Enable:	; 0 bytes @ 0x0
   295                           	global	?_Write
   296  0070                     ?_Write:	; 0 bytes @ 0x0
   297                           	global	?_Clear
   298  0070                     ?_Clear:	; 0 bytes @ 0x0
   299                           	global	?_lcd_putc
   300  0070                     ?_lcd_putc:	; 0 bytes @ 0x0
   301                           	global	?_lcd_init
   302  0070                     ?_lcd_init:	; 0 bytes @ 0x0
   303                           	global	?_putch
   304  0070                     ?_putch:	; 0 bytes @ 0x0
   305                           	global	?_send
   306  0070                     ?_send:	; 0 bytes @ 0x0
   307                           	global	?_protocol
   308  0070                     ?_protocol:	; 0 bytes @ 0x0
   309                           	global	?_interrupts
   310  0070                     ?_interrupts:	; 0 bytes @ 0x0
   311                           	global	?_T1_init
   312  0070                     ?_T1_init:	; 0 bytes @ 0x0
   313                           	global	?_T2_init
   314  0070                     ?_T2_init:	; 0 bytes @ 0x0
   315                           	global	?_serial_init
   316  0070                     ?_serial_init:	; 0 bytes @ 0x0
   317                           	global	?_main
   318  0070                     ?_main:	; 0 bytes @ 0x0
   319                           	global	?i1_Enable
   320  0070                     ?i1_Enable:	; 0 bytes @ 0x0
   321                           	global	??i1_Enable
   322  0070                     ??i1_Enable:	; 0 bytes @ 0x0
   323                           	global	?i1_Write
   324  0070                     ?i1_Write:	; 0 bytes @ 0x0
   325                           	global	??i1_Write
   326  0070                     ??i1_Write:	; 0 bytes @ 0x0
   327                           	global	?i1_Clear
   328  0070                     ?i1_Clear:	; 0 bytes @ 0x0
   329                           	global	?___lwdiv
   330  0070                     ?___lwdiv:	; 2 bytes @ 0x0
   331                           	global	___lwdiv@divisor
   332  0070                     ___lwdiv@divisor:	; 2 bytes @ 0x0
   333  0070                     	ds	2
   334                           	global	i1Write@c
   335  0072                     i1Write@c:	; 1 bytes @ 0x2
   336                           	global	___lwdiv@dividend
   337  0072                     ___lwdiv@dividend:	; 2 bytes @ 0x2
   338  0072                     	ds	1
   339                           	global	??_lcd_goto
   340  0073                     ??_lcd_goto:	; 0 bytes @ 0x3
   341                           	global	??i1_Clear
   342  0073                     ??i1_Clear:	; 0 bytes @ 0x3
   343                           	global	lcd_goto@pos
   344  0073                     lcd_goto@pos:	; 1 bytes @ 0x3
   345  0073                     	ds	1
   346                           	global	??___lwdiv
   347  0074                     ??___lwdiv:	; 0 bytes @ 0x4
   348  0074                     	ds	1
   349                           	global	??_lcd_putc
   350  0075                     ??_lcd_putc:	; 0 bytes @ 0x5
   351                           	global	lcd_putc@c
   352  0075                     lcd_putc@c:	; 1 bytes @ 0x5
   353                           	global	___lwdiv@quotient
   354  0075                     ___lwdiv@quotient:	; 2 bytes @ 0x5
   355  0075                     	ds	1
   356                           	global	??_putch
   357  0076                     ??_putch:	; 0 bytes @ 0x6
   358                           	global	putch@c
   359  0076                     putch@c:	; 1 bytes @ 0x6
   360  0076                     	ds	1
   361                           	global	___lwdiv@counter
   362  0077                     ___lwdiv@counter:	; 1 bytes @ 0x7
   363  0077                     	ds	1
   364                           	global	?___lwmod
   365  0078                     ?___lwmod:	; 2 bytes @ 0x8
   366                           	global	___lwmod@divisor
   367  0078                     ___lwmod@divisor:	; 2 bytes @ 0x8
   368  0078                     	ds	2
   369                           	global	___lwmod@dividend
   370  007A                     ___lwmod@dividend:	; 2 bytes @ 0xA
   371  007A                     	ds	2
   372                           	global	??___lwmod
   373  007C                     ??___lwmod:	; 0 bytes @ 0xC
   374  007C                     	ds	1
   375                           	global	___lwmod@counter
   376  007D                     ___lwmod@counter:	; 1 bytes @ 0xD
   377  007D                     	ds	1
   378                           psect	cstackBANK0,class=BANK0,space=1
   379                           global __pcstackBANK0
   380  0020                     __pcstackBANK0:
   381                           	global	?_printf
   382  0020                     ?_printf:	; 2 bytes @ 0x0
   383  0020                     	ds	2
   384                           	global	??_printf
   385  0022                     ??_printf:	; 0 bytes @ 0x2
   386  0022                     	ds	3
   387                           	global	printf@ap
   388  0025                     printf@ap:	; 1 bytes @ 0x5
   389  0025                     	ds	1
   390                           	global	printf@flag
   391  0026                     printf@flag:	; 1 bytes @ 0x6
   392  0026                     	ds	1
   393                           	global	printf@f
   394  0027                     printf@f:	; 1 bytes @ 0x7
   395  0027                     	ds	1
   396                           	global	printf@prec
   397  0028                     printf@prec:	; 1 bytes @ 0x8
   398  0028                     	ds	1
   399                           	global	printf@_val
   400  0029                     printf@_val:	; 4 bytes @ 0x9
   401  0029                     	ds	4
   402                           	global	printf@c
   403  002D                     printf@c:	; 1 bytes @ 0xD
   404  002D                     	ds	1
   405                           	global	??_interrupts
   406  002E                     ??_interrupts:	; 0 bytes @ 0xE
   407  002E                     	ds	6
   408                           	global	??_Enable
   409  0034                     ??_Enable:	; 0 bytes @ 0x14
   410                           	global	??_Write
   411  0034                     ??_Write:	; 0 bytes @ 0x14
   412                           	global	??_send
   413  0034                     ??_send:	; 0 bytes @ 0x14
   414                           	global	??_protocol
   415  0034                     ??_protocol:	; 0 bytes @ 0x14
   416                           	global	??_T1_init
   417  0034                     ??_T1_init:	; 0 bytes @ 0x14
   418                           	global	??_T2_init
   419  0034                     ??_T2_init:	; 0 bytes @ 0x14
   420                           	global	??_serial_init
   421  0034                     ??_serial_init:	; 0 bytes @ 0x14
   422  0034                     	ds	2
   423                           	global	Write@c
   424  0036                     Write@c:	; 1 bytes @ 0x16
   425  0036                     	ds	1
   426                           	global	??_Clear
   427  0037                     ??_Clear:	; 0 bytes @ 0x17
   428  0037                     	ds	2
   429                           	global	??_lcd_init
   430  0039                     ??_lcd_init:	; 0 bytes @ 0x19
   431  0039                     	ds	2
   432                           	global	??_main
   433  003B                     ??_main:	; 0 bytes @ 0x1B
   434  003B                     	ds	2
   435 ;;Data sizes: Strings 4, constant 10, data 0, bss 6, persistent 0 stack 0
   436 ;;Auto spaces:   Size  Autos    Used
   437 ;; COMMON          14     14      14
   438 ;; BANK0           80     29      35
   439 ;; BANK1           80      0       1
   440 ;; BANK2           80      0       0
   441                           
   442 ;;
   443 ;; Pointer list with targets:
   444                           
   445 ;; ?___lwdiv	unsigned int  size(1) Largest target is 0
   446 ;;
   447 ;; ?___lwmod	unsigned int  size(1) Largest target is 0
   448 ;;
   449 ;; printf@f	PTR const unsigned char  size(1) Largest target is 4
   450 ;;		 -> STR_1(CODE[4]), 
   451 ;;
   452 ;; ?_printf	int  size(1) Largest target is 0
   453 ;;
   454 ;; printf@ap	PTR void [1] size(1) Largest target is 2
   455 ;;		 -> ?_printf(BANK0[2]), 
   456 ;;
   457 ;; S1630$_cp	PTR const unsigned char  size(1) Largest target is 0
   458 ;;
   459 ;; _val._str._cp	PTR const unsigned char  size(1) Largest target is 0
   460 ;;
   461                           
   462                           
   463 ;;
   464 ;; Critical Paths under _main in COMMON
   465 ;;
   466 ;;   None.
   467 ;;
   468 ;; Critical Paths under _interrupts in COMMON
   469 ;;
   470 ;;   _printf->___lwmod
   471 ;;   _putch->_lcd_putc
   472 ;;   _lcd_putc->i1_Clear
   473 ;;   i1_Clear->i1_Write
   474 ;;   _lcd_goto->i1_Write
   475 ;;   ___lwmod->___lwdiv
   476 ;;
   477 ;; Critical Paths under _main in BANK0
   478 ;;
   479 ;;   _main->_lcd_init
   480 ;;   _lcd_init->_Clear
   481 ;;   _Clear->_Write
   482 ;;
   483 ;; Critical Paths under _interrupts in BANK0
   484 ;;
   485 ;;   _interrupts->_printf
   486 ;;
   487 ;; Critical Paths under _main in BANK1
   488 ;;
   489 ;;   None.
   490 ;;
   491 ;; Critical Paths under _interrupts in BANK1
   492 ;;
   493 ;;   None.
   494 ;;
   495 ;; Critical Paths under _main in BANK2
   496 ;;
   497 ;;   None.
   498 ;;
   499 ;; Critical Paths under _interrupts in BANK2
   500 ;;
   501 ;;   None.
   502                           
   503 ;;
   504 ;;Main: autosize = 0, tempsize = 2, incstack = 0, save=0
   505 ;;
   506                           
   507 ;;
   508 ;;Call Graph Tables:
   509 ;;
   510 ;; ---------------------------------------------------------------------------------
   511 ;; (Depth) Function   	        Calls       Base Space   Used Autos Params    Refs
   512 ;; ---------------------------------------------------------------------------------
   513 ;; (0) _main                                                 2     2      0      88
   514 ;;                                             27 BANK0      2     2      0
   515 ;;                            _T1_init
   516 ;;                            _T2_init
   517 ;;                        _serial_init
   518 ;;                           _lcd_init
   519 ;;                           _protocol
   520 ;;                               _send
   521 ;; ---------------------------------------------------------------------------------
   522 ;; (1) _lcd_init                                             2     2      0      88
   523 ;;                                             25 BANK0      2     2      0
   524 ;;                             _Enable
   525 ;;                              _Write
   526 ;;                              _Clear
   527 ;; ---------------------------------------------------------------------------------
   528 ;; (2) _Clear                                                2     2      0      44
   529 ;;                                             23 BANK0      2     2      0
   530 ;;                              _Write
   531 ;; ---------------------------------------------------------------------------------
   532 ;; (3) _Write                                                3     3      0      44
   533 ;;                                             20 BANK0      3     3      0
   534 ;;                             _Enable
   535 ;; ---------------------------------------------------------------------------------
   536 ;; (1) _send                                                 2     2      0       0
   537 ;;                                             20 BANK0      2     2      0
   538 ;; ---------------------------------------------------------------------------------
   539 ;; (4) _Enable                                               0     0      0       0
   540 ;; ---------------------------------------------------------------------------------
   541 ;; (1) _serial_init                                          0     0      0       0
   542 ;; ---------------------------------------------------------------------------------
   543 ;; (1) _T2_init                                              0     0      0       0
   544 ;; ---------------------------------------------------------------------------------
   545 ;; (1) _T1_init                                              0     0      0       0
   546 ;; ---------------------------------------------------------------------------------
   547 ;; (1) _protocol                                             1     1      0       0
   548 ;;                                             20 BANK0      1     1      0
   549 ;; ---------------------------------------------------------------------------------
   550 ;; Estimated maximum stack depth 4
   551 ;; ---------------------------------------------------------------------------------
   552 ;; (Depth) Function   	        Calls       Base Space   Used Autos Params    Refs
   553 ;; ---------------------------------------------------------------------------------
   554 ;; (5) _interrupts                                           6     6      0    1737
   555 ;;                                             14 BANK0      6     6      0
   556 ;;                             _printf
   557 ;; ---------------------------------------------------------------------------------
   558 ;; (6) _printf                                              14    12      2    1737
   559 ;;                                              0 BANK0     14    12      2
   560 ;;                              _putch
   561 ;;                            ___lwdiv
   562 ;;                            ___lwmod
   563 ;; ---------------------------------------------------------------------------------
   564 ;; (7) _putch                                                1     1      0    1030
   565 ;;                                              6 COMMON     1     1      0
   566 ;;                           _lcd_putc
   567 ;; ---------------------------------------------------------------------------------
   568 ;; (8) _lcd_putc                                             1     1      0    1008
   569 ;;                                              5 COMMON     1     1      0
   570 ;;                            i1_Clear
   571 ;;                           _lcd_goto
   572 ;;                            i1_Write
   573 ;;                           _lcd_putc
   574 ;; ---------------------------------------------------------------------------------
   575 ;; (9) i1_Clear                                              2     2      0     146
   576 ;;                                              3 COMMON     2     2      0
   577 ;;                            i1_Write
   578 ;; ---------------------------------------------------------------------------------
   579 ;; (9) _lcd_goto                                             1     1      0     168
   580 ;;                                              3 COMMON     1     1      0
   581 ;;                            i1_Write
   582 ;; ---------------------------------------------------------------------------------
   583 ;; (9) i1_Write                                              3     3      0     146
   584 ;;                                              0 COMMON     3     3      0
   585 ;;                           i1_Enable
   586 ;; ---------------------------------------------------------------------------------
   587 ;; (10) i1_Enable                                            0     0      0       0
   588 ;; ---------------------------------------------------------------------------------
   589 ;; (7) ___lwmod                                              6     2      4     159
   590 ;;                                              8 COMMON     6     2      4
   591 ;;                            ___lwdiv (ARG)
   592 ;; ---------------------------------------------------------------------------------
   593 ;; (7) ___lwdiv                                              8     4      4     162
   594 ;;                                              0 COMMON     8     4      4
   595 ;; ---------------------------------------------------------------------------------
   596 ;; Estimated maximum stack depth 10
   597 ;; ---------------------------------------------------------------------------------
   598                           
   599 ;; Call Graph Graphs:
   600                           
   601 ;; _main (ROOT)
   602 ;;   _T1_init
   603 ;;   _T2_init
   604 ;;   _serial_init
   605 ;;   _lcd_init
   606 ;;     _Enable
   607 ;;     _Write
   608 ;;       _Enable
   609 ;;     _Clear
   610 ;;       _Write
   611 ;;         _Enable
   612 ;;   _protocol
   613 ;;   _send
   614 ;;
   615 ;; _interrupts (ROOT)
   616 ;;   _printf
   617 ;;     _putch
   618 ;;       _lcd_putc
   619 ;;         i1_Clear
   620 ;;           i1_Write
   621 ;;             i1_Enable
   622 ;;         _lcd_goto
   623 ;;           i1_Write
   624 ;;             i1_Enable
   625 ;;         i1_Write
   626 ;;           i1_Enable
   627 ;;     ___lwdiv
   628 ;;     ___lwmod
   629 ;;       ___lwdiv (ARG)
   630 ;;
   631                           
   632 ;; Address spaces:
   633                           
   634 ;;Name               Size   Autos  Total    Cost      Usage
   635 ;;BITCOMMON            E      0       0       0        0.0%
   636 ;;EEDATA             100      0       0       0        0.0%
   637 ;;NULL                 0      0       0       0        0.0%
   638 ;;CODE                 0      0       0       0        0.0%
   639 ;;COMMON               E      E       E       1      100.0%
   640 ;;BITSFR0              0      0       0       1        0.0%
   641 ;;SFR0                 0      0       0       1        0.0%
   642 ;;BITSFR1              0      0       0       2        0.0%
   643 ;;SFR1                 0      0       0       2        0.0%
   644 ;;STACK                0      0      14       2        0.0%
   645 ;;BANK0               50     1D      23       3       43.8%
   646 ;;BITBANK1            50      0       1       4        1.3%
   647 ;;BITSFR3              0      0       0       4        0.0%
   648 ;;SFR3                 0      0       0       4        0.0%
   649 ;;BANK1               50      0       1       5        1.3%
   650 ;;BITSFR2              0      0       0       5        0.0%
   651 ;;SFR2                 0      0       0       5        0.0%
   652 ;;BITBANK2            50      0       0       6        0.0%
   653 ;;BANK2               50      0       0       7        0.0%
   654 ;;ABS                  0      0      32       8        0.0%
   655 ;;BITBANK0            50      0       0       9        0.0%
   656 ;;DATA                 0      0      46      10        0.0%
   657                           
   658                           	global	_main
   659                           psect	maintext,global,class=CODE,delta=2
   660                           global __pmaintext
   661  0258                     __pmaintext:
   662                           
   663 ;; *************** function _main *****************
   664 ;; Defined at:
   665 ;;		line 124 in file "D:\Dropbox\TC - 2015\Pesquisas\PIC\8 - Dispositivo 1\Dispositivo_1.c"
   666 ;; Parameters:    Size  Location     Type
   667 ;;		None
   668 ;; Auto vars:     Size  Location     Type
   669 ;;		None
   670 ;; Return value:  Size  Location     Type
   671 ;;		None               void
   672 ;; Registers used:
   673 ;;		wreg, status,2, status,0, pclath, cstack
   674 ;; Tracked objects:
   675 ;;		On entry : 17F/0
   676 ;;		On exit  : 0/0
   677 ;;		Unchanged: 0/0
   678 ;; Data sizes:     COMMON   BANK0   BANK1   BANK2
   679 ;;      Params:         0       0       0       0
   680 ;;      Locals:         0       0       0       0
   681 ;;      Temps:          0       2       0       0
   682 ;;      Totals:         0       2       0       0
   683 ;;Total ram usage:        2 bytes
   684 ;; Hardware stack levels required when called:   11
   685 ;; This function calls:
   686 ;;		_T1_init
   687 ;;		_T2_init
   688 ;;		_serial_init
   689 ;;		_lcd_init
   690 ;;		_protocol
   691 ;;		_send
   692 ;; This function is called by:
   693 ;;		Startup code after reset
   694 ;; This function uses a non-reentrant model
   695 ;;
   696                           psect	maintext
   697                           	file	"D:\Dropbox\TC - 2015\Pesquisas\PIC\8 - Dispositivo 1\Dispositivo_1.c"
   698                           	line	124
   699                           	global	__size_of_main
   700  004A                     	__size_of_main	equ	__end_of_main-_main
   701                           	
   702  0258                     _main:	
   703 ;; hardware stack exceeded
   704                           	opt	stack 0
   705                           ; Regs used in _main: [wreg+status,2+status,0+pclath+cstack]
   706                           	line	125
   707                           	
   708  0258                     l3767:	
   709                           ;Dispositivo_1.c: 125: OSCCON=0b01110000;
   710  0258  3070               	movlw	(070h)
   711  0259  1683               	bsf	status, 5	;RP0=1, select bank1
   712  025A  1303               	bcf	status, 6	;RP1=0, select bank1
   713  025B  008F               	movwf	(143)^080h	;volatile
   714                           	line	126
   715                           	
   716  025C                     l3769:	
   717                           ;Dispositivo_1.c: 126: ANSEL=0;
   718  025C  1283               	bcf	status, 5	;RP0=0, select bank2
   719  025D  1703               	bsf	status, 6	;RP1=1, select bank2
   720  025E  019E               	clrf	(286)^0100h	;volatile
   721                           	line	127
   722                           	
   723  025F                     l3771:	
   724                           ;Dispositivo_1.c: 127: ANSELH=0;
   725  025F  019F               	clrf	(287)^0100h	;volatile
   726                           	line	128
   727                           ;Dispositivo_1.c: 128: TRISA=0b00000100;
   728  0260  3004               	movlw	(04h)
   729  0261  1683               	bsf	status, 5	;RP0=1, select bank1
   730  0262  1303               	bcf	status, 6	;RP1=0, select bank1
   731  0263  0085               	movwf	(133)^080h	;volatile
   732                           	line	129
   733                           	
   734  0264                     l3773:	
   735                           ;Dispositivo_1.c: 129: TRISB=0;
   736  0264  0186               	clrf	(134)^080h	;volatile
   737                           	line	130
   738                           	
   739  0265                     l3775:	
   740                           ;Dispositivo_1.c: 130: TRISC=0;
   741  0265  0187               	clrf	(135)^080h	;volatile
   742                           	line	131
   743                           	
   744  0266                     l3777:	
   745                           ;Dispositivo_1.c: 131: PORTA=PORTB=PORTC=0;
   746  0266  1283               	bcf	status, 5	;RP0=0, select bank0
   747  0267  1303               	bcf	status, 6	;RP1=0, select bank0
   748  0268  0187               	clrf	(7)	;volatile
   749  0269  0186               	clrf	(6)	;volatile
   750  026A  0185               	clrf	(5)	;volatile
   751                           	line	132
   752                           	
   753  026B                     l3779:	
   754                           ;Dispositivo_1.c: 132: INTCON=0b11010000;
   755  026B  30D0               	movlw	(0D0h)
   756  026C  008B               	movwf	(11)	;volatile
   757                           	line	133
   758                           	
   759  026D                     l3781:	
   760                           ;Dispositivo_1.c: 133: INTEDG=0;
   761  026D  1683               	bsf	status, 5	;RP0=1, select bank1
   762  026E  1303               	bcf	status, 6	;RP1=0, select bank1
   763  026F  1301               	bcf	(1038/8)^080h,(1038)&7
   764                           	line	134
   765                           	
   766  0270                     l3783:	
   767                           ;Dispositivo_1.c: 134: T1_init();
   768  0270  118A  23E4  118A   	fcall	_T1_init
   769                           	line	135
   770                           	
   771  0273                     l3785:	
   772                           ;Dispositivo_1.c: 135: T2_init();
   773  0273  118A  23D4  118A   	fcall	_T2_init
   774                           	line	136
   775                           	
   776  0276                     l3787:	
   777                           ;Dispositivo_1.c: 136: serial_init();
   778  0276  118A  2385  118A   	fcall	_serial_init
   779                           	line	137
   780                           	
   781  0279                     l3789:	
   782                           ;Dispositivo_1.c: 137: lcd_init();
   783  0279  118A  2165  118A   	fcall	_lcd_init
   784                           	line	138
   785                           	
   786  027C                     l3791:	
   787                           ;Dispositivo_1.c: 138: _delay((unsigned long)((5)*(4000000/4000.0)));
   788                           	opt asmopt_off
   789  027C  3007               movlw	7
   790  027D  1283               	bcf	status, 5	;RP0=0, select bank0
   791  027E  1303               	bcf	status, 6	;RP1=0, select bank0
   792  027F  00BC               movwf	((??_main+0)+0+1),f
   793  0280  307D               	movlw	125
   794  0281  00BB               movwf	((??_main+0)+0),f
   795  0282                     u2907:
   796  0282  0BBB               	decfsz	((??_main+0)+0),f
   797  0283  2A82               	goto	u2907
   798  0284  0BBC               	decfsz	((??_main+0)+0+1),f
   799  0285  2A82               	goto	u2907
   800                           opt asmopt_on
   801                           
   802  0286  2A87               	goto	l3793
   803                           	line	140
   804                           ;Dispositivo_1.c: 140: while(1){
   805                           	
   806  0287                     l983:	
   807                           	line	141
   808                           	
   809  0287                     l3793:	
   810                           ;Dispositivo_1.c: 141: if(bt_flag){
   811  0287  1683               	bsf	status, 5	;RP0=1, select bank1
   812  0288  1303               	bcf	status, 6	;RP1=0, select bank1
   813  0289  1C20               	btfss	(_bt_flag/8)^080h,(_bt_flag)&7
   814  028A  2A8C               	goto	u2881
   815  028B  2A8D               	goto	u2880
   816  028C                     u2881:
   817  028C  2A94               	goto	l3799
   818  028D                     u2880:
   819                           	line	142
   820                           	
   821  028D                     l3795:	
   822                           ;Dispositivo_1.c: 142: protocol();
   823  028D  118A  22E6  118A   	fcall	_protocol
   824                           	line	143
   825                           	
   826  0290                     l3797:	
   827                           ;Dispositivo_1.c: 143: bt_flag=0;
   828  0290  1683               	bsf	status, 5	;RP0=1, select bank1
   829  0291  1303               	bcf	status, 6	;RP1=0, select bank1
   830  0292  1020               	bcf	(_bt_flag/8)^080h,(_bt_flag)&7
   831  0293  2A94               	goto	l3799
   832                           	line	144
   833                           	
   834  0294                     l984:	
   835                           	line	145
   836                           	
   837  0294                     l3799:	
   838                           ;Dispositivo_1.c: 144: }
   839                           ;Dispositivo_1.c: 145: if(enviar){
   840  0294  1283               	bcf	status, 5	;RP0=0, select bank0
   841  0295  1303               	bcf	status, 6	;RP1=0, select bank0
   842  0296  0840               	movf	(_enviar),w
   843  0297  1D03               	skipz
   844  0298  2A9A               	goto	u2890
   845  0299  2A87               	goto	l3793
   846  029A                     u2890:
   847                           	line	146
   848                           	
   849  029A                     l3801:	
   850                           ;Dispositivo_1.c: 146: send();
   851  029A  118A  2367  118A   	fcall	_send
   852  029D  2A87               	goto	l3793
   853                           	line	147
   854                           	
   855  029E                     l985:	
   856  029E  2A87               	goto	l3793
   857                           	line	148
   858                           	
   859  029F                     l986:	
   860                           	line	140
   861  029F  2A87               	goto	l3793
   862                           	
   863  02A0                     l987:	
   864                           	line	149
   865                           	
   866  02A0                     l988:	
   867                           	global	start
   868  02A0  118A  2811         	ljmp	start
   869                           	opt stack 0
   870                           GLOBAL	__end_of_main
   871  02A2                     	__end_of_main:
   872 ;; =============== function _main ends ============
   873                           
   874                           	signat	_main,88
   875                           	global	_lcd_init
   876                           psect	text505,local,class=CODE,delta=2
   877                           global __ptext505
   878  0165                     __ptext505:
   879                           
   880 ;; *************** function _lcd_init *****************
   881 ;; Defined at:
   882 ;;		line 87 in file "D:\Dropbox\TC - 2015\Pesquisas\PIC\8 - Dispositivo 1\LCD_Claudio.c"
   883 ;; Parameters:    Size  Location     Type
   884 ;;		None
   885 ;; Auto vars:     Size  Location     Type
   886 ;;		None
   887 ;; Return value:  Size  Location     Type
   888 ;;		None               void
   889 ;; Registers used:
   890 ;;		wreg, status,2, status,0, pclath, cstack
   891 ;; Tracked objects:
   892 ;;		On entry : 0/0
   893 ;;		On exit  : 0/0
   894 ;;		Unchanged: 0/0
   895 ;; Data sizes:     COMMON   BANK0   BANK1   BANK2
   896 ;;      Params:         0       0       0       0
   897 ;;      Locals:         0       0       0       0
   898 ;;      Temps:          0       2       0       0
   899 ;;      Totals:         0       2       0       0
   900 ;;Total ram usage:        2 bytes
   901 ;; Hardware stack levels used:    1
   902 ;; Hardware stack levels required when called:   10
   903 ;; This function calls:
   904 ;;		_Enable
   905 ;;		_Write
   906 ;;		_Clear
   907 ;; This function is called by:
   908 ;;		_main
   909 ;; This function uses a non-reentrant model
   910 ;;
   911                           psect	text505
   912                           	file	"D:\Dropbox\TC - 2015\Pesquisas\PIC\8 - Dispositivo 1\LCD_Claudio.c"
   913                           	line	87
   914                           	global	__size_of_lcd_init
   915  0055                     	__size_of_lcd_init	equ	__end_of_lcd_init-_lcd_init
   916                           	
   917  0165                     _lcd_init:	
   918 ;; hardware stack exceeded
   919                           	opt	stack 0
   920                           ; Regs used in _lcd_init: [wreg+status,2+status,0+pclath+cstack]
   921                           	line	88
   922                           	
   923  0165                     l3735:	
   924                           ;LCD_Claudio.c: 88: _delay((unsigned long)((15)*(4000000/4000.0)));
   925                           	opt asmopt_off
   926  0165  3014               movlw	20
   927  0166  1283               	bcf	status, 5	;RP0=0, select bank0
   928  0167  1303               	bcf	status, 6	;RP1=0, select bank0
   929  0168  00BA               movwf	((??_lcd_init+0)+0+1),f
   930  0169  3079               	movlw	121
   931  016A  00B9               movwf	((??_lcd_init+0)+0),f
   932  016B                     u2917:
   933  016B  0BB9               	decfsz	((??_lcd_init+0)+0),f
   934  016C  296B               	goto	u2917
   935  016D  0BBA               	decfsz	((??_lcd_init+0)+0+1),f
   936  016E  296B               	goto	u2917
   937  016F  2970               	nop2
   938                           opt asmopt_on
   939                           
   940                           	line	89
   941                           	
   942  0170                     l3737:	
   943                           ;LCD_Claudio.c: 89: PORTC&=0xF0;
   944  0170  30F0               	movlw	(0F0h)
   945  0171  1283               	bcf	status, 5	;RP0=0, select bank0
   946  0172  1303               	bcf	status, 6	;RP1=0, select bank0
   947  0173  00B9               	movwf	(??_lcd_init+0)+0
   948  0174  0839               	movf	(??_lcd_init+0)+0,w
   949  0175  0587               	andwf	(7),f	;volatile
   950                           	line	90
   951                           	
   952  0176                     l3739:	
   953                           ;LCD_Claudio.c: 90: PORTC|=0X03;
   954  0176  3003               	movlw	(03h)
   955  0177  00B9               	movwf	(??_lcd_init+0)+0
   956  0178  0839               	movf	(??_lcd_init+0)+0,w
   957  0179  0487               	iorwf	(7),f	;volatile
   958                           	line	91
   959                           	
   960  017A                     l3741:	
   961                           ;LCD_Claudio.c: 91: Enable();
   962  017A  118A  2409  118A   	fcall	_Enable
   963                           	line	92
   964                           	
   965  017D                     l3743:	
   966                           ;LCD_Claudio.c: 92: _delay((unsigned long)((5)*(4000000/4000.0)));
   967                           	opt asmopt_off
   968  017D  3007               movlw	7
   969  017E  1283               	bcf	status, 5	;RP0=0, select bank0
   970  017F  1303               	bcf	status, 6	;RP1=0, select bank0
   971  0180  00BA               movwf	((??_lcd_init+0)+0+1),f
   972  0181  307D               	movlw	125
   973  0182  00B9               movwf	((??_lcd_init+0)+0),f
   974  0183                     u2927:
   975  0183  0BB9               	decfsz	((??_lcd_init+0)+0),f
   976  0184  2983               	goto	u2927
   977  0185  0BBA               	decfsz	((??_lcd_init+0)+0+1),f
   978  0186  2983               	goto	u2927
   979                           opt asmopt_on
   980                           
   981                           	line	93
   982                           	
   983  0187                     l3745:	
   984                           ;LCD_Claudio.c: 93: PORTC&=0xF0;
   985  0187  30F0               	movlw	(0F0h)
   986  0188  1283               	bcf	status, 5	;RP0=0, select bank0
   987  0189  1303               	bcf	status, 6	;RP1=0, select bank0
   988  018A  00B9               	movwf	(??_lcd_init+0)+0
   989  018B  0839               	movf	(??_lcd_init+0)+0,w
   990  018C  0587               	andwf	(7),f	;volatile
   991                           	line	94
   992                           	
   993  018D                     l3747:	
   994                           ;LCD_Claudio.c: 94: PORTC|=0X03;
   995  018D  3003               	movlw	(03h)
   996  018E  00B9               	movwf	(??_lcd_init+0)+0
   997  018F  0839               	movf	(??_lcd_init+0)+0,w
   998  0190  0487               	iorwf	(7),f	;volatile
   999                           	line	95
  1000                           ;LCD_Claudio.c: 95: Enable();
  1001  0191  118A  2409  118A   	fcall	_Enable
  1002                           	line	96
  1003                           	
  1004  0194                     l3749:	
  1005                           ;LCD_Claudio.c: 96: _delay((unsigned long)((100)*(4000000/4000000.0)));
  1006                           	opt asmopt_off
  1007  0194  3021               movlw	33
  1008  0195  1283               	bcf	status, 5	;RP0=0, select bank0
  1009  0196  1303               	bcf	status, 6	;RP1=0, select bank0
  1010  0197  00B9               movwf	(??_lcd_init+0)+0,f
  1011  0198                     u2937:
  1012  0198  0BB9               decfsz	(??_lcd_init+0)+0,f
  1013  0199  2998               	goto	u2937
  1014                           opt asmopt_on
  1015                           
  1016                           	line	97
  1017                           	
  1018  019A                     l3751:	
  1019                           ;LCD_Claudio.c: 97: PORTC&=0xF0;
  1020  019A  30F0               	movlw	(0F0h)
  1021  019B  1283               	bcf	status, 5	;RP0=0, select bank0
  1022  019C  1303               	bcf	status, 6	;RP1=0, select bank0
  1023  019D  00B9               	movwf	(??_lcd_init+0)+0
  1024  019E  0839               	movf	(??_lcd_init+0)+0,w
  1025  019F  0587               	andwf	(7),f	;volatile
  1026                           	line	98
  1027                           	
  1028  01A0                     l3753:	
  1029                           ;LCD_Claudio.c: 98: PORTC|=0X02;
  1030  01A0  1487               	bsf	(7)+(1/8),(1)&7	;volatile
  1031                           	line	99
  1032                           	
  1033  01A1                     l3755:	
  1034                           ;LCD_Claudio.c: 99: Enable();
  1035  01A1  118A  2409  118A   	fcall	_Enable
  1036                           	line	100
  1037                           	
  1038  01A4                     l3757:	
  1039                           ;LCD_Claudio.c: 100: _delay((unsigned long)((40)*(4000000/4000000.0)));
  1040                           	opt asmopt_off
  1041  01A4  300D               movlw	13
  1042  01A5  1283               	bcf	status, 5	;RP0=0, select bank0
  1043  01A6  1303               	bcf	status, 6	;RP1=0, select bank0
  1044  01A7  00B9               movwf	(??_lcd_init+0)+0,f
  1045  01A8                     u2947:
  1046  01A8  0BB9               decfsz	(??_lcd_init+0)+0,f
  1047  01A9  29A8               	goto	u2947
  1048                           opt asmopt_on
  1049                           
  1050                           	line	101
  1051                           	
  1052  01AA                     l3759:	
  1053                           ;LCD_Claudio.c: 101: Write(0x28);
  1054  01AA  3028               	movlw	(028h)
  1055  01AB  118A  2313  118A   	fcall	_Write
  1056                           	line	102
  1057                           	
  1058  01AE                     l3761:	
  1059                           ;LCD_Claudio.c: 102: Write(0x0D);
  1060  01AE  300D               	movlw	(0Dh)
  1061  01AF  118A  2313  118A   	fcall	_Write
  1062                           	line	103
  1063                           	
  1064  01B2                     l3763:	
  1065                           ;LCD_Claudio.c: 103: Write(0x06);
  1066  01B2  3006               	movlw	(06h)
  1067  01B3  118A  2313  118A   	fcall	_Write
  1068                           	line	104
  1069                           	
  1070  01B6                     l3765:	
  1071                           ;LCD_Claudio.c: 104: Clear();
  1072  01B6  118A  23B0  118A   	fcall	_Clear
  1073                           	line	105
  1074                           	
  1075  01B9                     l940:	
  1076  01B9  0008               	return
  1077                           	opt stack 0
  1078                           GLOBAL	__end_of_lcd_init
  1079  01BA                     	__end_of_lcd_init:
  1080 ;; =============== function _lcd_init ends ============
  1081                           
  1082                           	signat	_lcd_init,88
  1083                           	global	_Clear
  1084                           psect	text506,local,class=CODE,delta=2
  1085                           global __ptext506
  1086  03B0                     __ptext506:
  1087                           
  1088 ;; *************** function _Clear *****************
  1089 ;; Defined at:
  1090 ;;		line 38 in file "D:\Dropbox\TC - 2015\Pesquisas\PIC\8 - Dispositivo 1\LCD_Claudio.c"
  1091 ;; Parameters:    Size  Location     Type
  1092 ;;		None
  1093 ;; Auto vars:     Size  Location     Type
  1094 ;;		None
  1095 ;; Return value:  Size  Location     Type
  1096 ;;		None               void
  1097 ;; Registers used:
  1098 ;;		wreg, status,2, status,0, pclath, cstack
  1099 ;; Tracked objects:
  1100 ;;		On entry : 0/0
  1101 ;;		On exit  : 0/0
  1102 ;;		Unchanged: 0/0
  1103 ;; Data sizes:     COMMON   BANK0   BANK1   BANK2
  1104 ;;      Params:         0       0       0       0
  1105 ;;      Locals:         0       0       0       0
  1106 ;;      Temps:          0       2       0       0
  1107 ;;      Totals:         0       2       0       0
  1108 ;;Total ram usage:        2 bytes
  1109 ;; Hardware stack levels used:    1
  1110 ;; Hardware stack levels required when called:    9
  1111 ;; This function calls:
  1112 ;;		_Write
  1113 ;; This function is called by:
  1114 ;;		_lcd_init
  1115 ;; This function uses a non-reentrant model
  1116 ;;
  1117                           psect	text506
  1118                           	file	"D:\Dropbox\TC - 2015\Pesquisas\PIC\8 - Dispositivo 1\LCD_Claudio.c"
  1119                           	line	38
  1120                           	global	__size_of_Clear
  1121  0013                     	__size_of_Clear	equ	__end_of_Clear-_Clear
  1122                           	
  1123  03B0                     _Clear:	
  1124 ;; hardware stack exceeded
  1125                           	opt	stack 0
  1126                           ; Regs used in _Clear: [wreg+status,2+status,0+pclath+cstack]
  1127                           	line	39
  1128                           	
  1129  03B0                     l3729:	
  1130                           ;LCD_Claudio.c: 39: RC6 = 0;
  1131  03B0  1283               	bcf	status, 5	;RP0=0, select bank0
  1132  03B1  1303               	bcf	status, 6	;RP1=0, select bank0
  1133  03B2  1307               	bcf	(62/8),(62)&7
  1134                           	line	40
  1135                           	
  1136  03B3                     l3731:	
  1137                           ;LCD_Claudio.c: 40: Write(0x01);
  1138  03B3  3001               	movlw	(01h)
  1139  03B4  118A  2313  118A   	fcall	_Write
  1140                           	line	41
  1141                           	
  1142  03B7                     l3733:	
  1143                           ;LCD_Claudio.c: 41: _delay((unsigned long)((2)*(4000000/4000.0)));
  1144                           	opt asmopt_off
  1145  03B7  3003               movlw	3
  1146  03B8  1283               	bcf	status, 5	;RP0=0, select bank0
  1147  03B9  1303               	bcf	status, 6	;RP1=0, select bank0
  1148  03BA  00B8               movwf	((??_Clear+0)+0+1),f
  1149  03BB  3097               	movlw	151
  1150  03BC  00B7               movwf	((??_Clear+0)+0),f
  1151  03BD                     u2957:
  1152  03BD  0BB7               	decfsz	((??_Clear+0)+0),f
  1153  03BE  2BBD               	goto	u2957
  1154  03BF  0BB8               	decfsz	((??_Clear+0)+0+1),f
  1155  03C0  2BBD               	goto	u2957
  1156  03C1  2BC2               	nop2
  1157                           opt asmopt_on
  1158                           
  1159                           	line	42
  1160                           	
  1161  03C2                     l917:	
  1162  03C2  0008               	return
  1163                           	opt stack 0
  1164                           GLOBAL	__end_of_Clear
  1165  03C3                     	__end_of_Clear:
  1166 ;; =============== function _Clear ends ============
  1167                           
  1168                           	signat	_Clear,88
  1169                           	global	_Write
  1170                           psect	text507,local,class=CODE,delta=2
  1171                           global __ptext507
  1172  0313                     __ptext507:
  1173                           
  1174 ;; *************** function _Write *****************
  1175 ;; Defined at:
  1176 ;;		line 28 in file "D:\Dropbox\TC - 2015\Pesquisas\PIC\8 - Dispositivo 1\LCD_Claudio.c"
  1177 ;; Parameters:    Size  Location     Type
  1178 ;;  c               1    wreg     unsigned char 
  1179 ;; Auto vars:     Size  Location     Type
  1180 ;;  c               1   22[BANK0 ] unsigned char 
  1181 ;; Return value:  Size  Location     Type
  1182 ;;		None               void
  1183 ;; Registers used:
  1184 ;;		wreg, status,2, status,0, pclath, cstack
  1185 ;; Tracked objects:
  1186 ;;		On entry : 0/0
  1187 ;;		On exit  : 0/0
  1188 ;;		Unchanged: 0/0
  1189 ;; Data sizes:     COMMON   BANK0   BANK1   BANK2
  1190 ;;      Params:         0       0       0       0
  1191 ;;      Locals:         0       1       0       0
  1192 ;;      Temps:          0       2       0       0
  1193 ;;      Totals:         0       3       0       0
  1194 ;;Total ram usage:        3 bytes
  1195 ;; Hardware stack levels used:    1
  1196 ;; Hardware stack levels required when called:    8
  1197 ;; This function calls:
  1198 ;;		_Enable
  1199 ;; This function is called by:
  1200 ;;		_Clear
  1201 ;;		_lcd_init
  1202 ;;		_lcd_puts
  1203 ;; This function uses a non-reentrant model
  1204 ;;
  1205                           psect	text507
  1206                           	file	"D:\Dropbox\TC - 2015\Pesquisas\PIC\8 - Dispositivo 1\LCD_Claudio.c"
  1207                           	line	28
  1208                           	global	__size_of_Write
  1209  002B                     	__size_of_Write	equ	__end_of_Write-_Write
  1210                           	
  1211  0313                     _Write:	
  1212 ;; hardware stack exceeded
  1213                           	opt	stack 0
  1214                           ; Regs used in _Write: [wreg+status,2+status,0+pclath+cstack]
  1215                           ;Write@c stored from wreg
  1216  0313  1283               	bcf	status, 5	;RP0=0, select bank0
  1217  0314  1303               	bcf	status, 6	;RP1=0, select bank0
  1218  0315  00B6               	movwf	(Write@c)
  1219                           	line	29
  1220                           	
  1221  0316                     l3717:	
  1222                           ;LCD_Claudio.c: 29: PORTC&=0XF0;
  1223  0316  30F0               	movlw	(0F0h)
  1224  0317  00B4               	movwf	(??_Write+0)+0
  1225  0318  0834               	movf	(??_Write+0)+0,w
  1226  0319  0587               	andwf	(7),f	;volatile
  1227                           	line	30
  1228                           ;LCD_Claudio.c: 30: PORTC|=c >> 4;
  1229  031A  0836               	movf	(Write@c),w
  1230  031B  00B4               	movwf	(??_Write+0)+0
  1231  031C  3004               	movlw	04h
  1232  031D                     u2875:
  1233  031D  1003               	clrc
  1234  031E  0CB4               	rrf	(??_Write+0)+0,f
  1235  031F  3EFF               	addlw	-1
  1236  0320  1D03               	skipz
  1237  0321  2B1D               	goto	u2875
  1238  0322  0834               	movf	0+(??_Write+0)+0,w
  1239  0323  00B5               	movwf	(??_Write+1)+0
  1240  0324  0835               	movf	(??_Write+1)+0,w
  1241  0325  0487               	iorwf	(7),f	;volatile
  1242                           	line	31
  1243                           	
  1244  0326                     l3719:	
  1245                           ;LCD_Claudio.c: 31: Enable();
  1246  0326  118A  2409  118A   	fcall	_Enable
  1247                           	line	32
  1248                           	
  1249  0329                     l3721:	
  1250                           ;LCD_Claudio.c: 32: PORTC&=0XF0;
  1251  0329  30F0               	movlw	(0F0h)
  1252  032A  1283               	bcf	status, 5	;RP0=0, select bank0
  1253  032B  1303               	bcf	status, 6	;RP1=0, select bank0
  1254  032C  00B4               	movwf	(??_Write+0)+0
  1255  032D  0834               	movf	(??_Write+0)+0,w
  1256  032E  0587               	andwf	(7),f	;volatile
  1257                           	line	33
  1258                           	
  1259  032F                     l3723:	
  1260                           ;LCD_Claudio.c: 33: PORTC|=(c & 0X0F);
  1261  032F  0836               	movf	(Write@c),w
  1262  0330  390F               	andlw	0Fh
  1263  0331  00B4               	movwf	(??_Write+0)+0
  1264  0332  0834               	movf	(??_Write+0)+0,w
  1265  0333  0487               	iorwf	(7),f	;volatile
  1266                           	line	34
  1267                           	
  1268  0334                     l3725:	
  1269                           ;LCD_Claudio.c: 34: Enable();
  1270  0334  118A  2409  118A   	fcall	_Enable
  1271                           	line	35
  1272                           	
  1273  0337                     l3727:	
  1274                           ;LCD_Claudio.c: 35: _delay((unsigned long)((40)*(4000000/4000000.0)));
  1275                           	opt asmopt_off
  1276  0337  300D               movlw	13
  1277  0338  1283               	bcf	status, 5	;RP0=0, select bank0
  1278  0339  1303               	bcf	status, 6	;RP1=0, select bank0
  1279  033A  00B4               movwf	(??_Write+0)+0,f
  1280  033B                     u2967:
  1281  033B  0BB4               decfsz	(??_Write+0)+0,f
  1282  033C  2B3B               	goto	u2967
  1283                           opt asmopt_on
  1284                           
  1285                           	line	36
  1286                           	
  1287  033D                     l914:	
  1288  033D  0008               	return
  1289                           	opt stack 0
  1290                           GLOBAL	__end_of_Write
  1291  033E                     	__end_of_Write:
  1292 ;; =============== function _Write ends ============
  1293                           
  1294                           	signat	_Write,4216
  1295                           	global	_send
  1296                           psect	text508,local,class=CODE,delta=2
  1297                           global __ptext508
  1298  0367                     __ptext508:
  1299                           
  1300 ;; *************** function _send *****************
  1301 ;; Defined at:
  1302 ;;		line 25 in file "D:\Dropbox\TC - 2015\Pesquisas\PIC\8 - Dispositivo 1\Dispositivo_1.c"
  1303 ;; Parameters:    Size  Location     Type
  1304 ;;		None
  1305 ;; Auto vars:     Size  Location     Type
  1306 ;;		None
  1307 ;; Return value:  Size  Location     Type
  1308 ;;		None               void
  1309 ;; Registers used:
  1310 ;;		wreg, status,2, status,0
  1311 ;; Tracked objects:
  1312 ;;		On entry : 0/0
  1313 ;;		On exit  : 0/0
  1314 ;;		Unchanged: 0/0
  1315 ;; Data sizes:     COMMON   BANK0   BANK1   BANK2
  1316 ;;      Params:         0       0       0       0
  1317 ;;      Locals:         0       0       0       0
  1318 ;;      Temps:          0       2       0       0
  1319 ;;      Totals:         0       2       0       0
  1320 ;;Total ram usage:        2 bytes
  1321 ;; Hardware stack levels used:    1
  1322 ;; Hardware stack levels required when called:    7
  1323 ;; This function calls:
  1324 ;;		Nothing
  1325 ;; This function is called by:
  1326 ;;		_main
  1327 ;; This function uses a non-reentrant model
  1328 ;;
  1329                           psect	text508
  1330                           	file	"D:\Dropbox\TC - 2015\Pesquisas\PIC\8 - Dispositivo 1\Dispositivo_1.c"
  1331                           	line	25
  1332                           	global	__size_of_send
  1333  001E                     	__size_of_send	equ	__end_of_send-_send
  1334                           	
  1335  0367                     _send:	
  1336                           	opt	stack 0
  1337                           ; Regs used in _send: [wreg+status,2+status,0]
  1338                           	line	26
  1339                           	
  1340  0367                     l3711:	
  1341                           ;Dispositivo_1.c: 26: _delay((unsigned long)((1)*(4000000/4000.0)));
  1342                           	opt asmopt_off
  1343  0367  30F9               movlw	249
  1344  0368  1283               	bcf	status, 5	;RP0=0, select bank0
  1345  0369  1303               	bcf	status, 6	;RP1=0, select bank0
  1346  036A  00B4               movwf	(??_send+0)+0,f
  1347  036B                     u2977:
  1348  036B  0064               	clrwdt
  1349  036C  0BB4               decfsz	(??_send+0)+0,f
  1350  036D  2B6B               	goto	u2977
  1351  036E  2B6F               	nop2	;nop
  1352  036F  0064               	clrwdt
  1353                           opt asmopt_on
  1354                           
  1355                           	line	27
  1356                           ;Dispositivo_1.c: 27: CCPR1L=10;
  1357  0370  300A               	movlw	(0Ah)
  1358  0371  1283               	bcf	status, 5	;RP0=0, select bank0
  1359  0372  1303               	bcf	status, 6	;RP1=0, select bank0
  1360  0373  0095               	movwf	(21)	;volatile
  1361                           	line	28
  1362                           ;Dispositivo_1.c: 28: _delay((unsigned long)((2)*(4000000/4000.0)));
  1363                           	opt asmopt_off
  1364  0374  3003               movlw	3
  1365  0375  00B5               movwf	((??_send+0)+0+1),f
  1366  0376  3097               	movlw	151
  1367  0377  00B4               movwf	((??_send+0)+0),f
  1368  0378                     u2987:
  1369  0378  0BB4               	decfsz	((??_send+0)+0),f
  1370  0379  2B78               	goto	u2987
  1371  037A  0BB5               	decfsz	((??_send+0)+0+1),f
  1372  037B  2B78               	goto	u2987
  1373  037C  2B7D               	nop2
  1374                           opt asmopt_on
  1375                           
  1376                           	line	29
  1377                           ;Dispositivo_1.c: 29: CCPR1L=20;
  1378  037D  3014               	movlw	(014h)
  1379  037E  1283               	bcf	status, 5	;RP0=0, select bank0
  1380  037F  1303               	bcf	status, 6	;RP1=0, select bank0
  1381  0380  0095               	movwf	(21)	;volatile
  1382                           	line	30
  1383                           	
  1384  0381                     l3713:	
  1385                           ;Dispositivo_1.c: 30: enviar=0;
  1386  0381  01C0               	clrf	(_enviar)
  1387                           	line	31
  1388                           	
  1389  0382                     l3715:	
  1390                           ;Dispositivo_1.c: 31: enviando--;
  1391  0382  3001               	movlw	low(01h)
  1392  0383  02BF               	subwf	(_enviando),f
  1393                           	line	32
  1394                           	
  1395  0384                     l946:	
  1396  0384  0008               	return
  1397                           	opt stack 0
  1398                           GLOBAL	__end_of_send
  1399  0385                     	__end_of_send:
  1400 ;; =============== function _send ends ============
  1401                           
  1402                           	signat	_send,88
  1403                           	global	_Enable
  1404                           psect	text509,local,class=CODE,delta=2
  1405                           global __ptext509
  1406  0409                     __ptext509:
  1407                           
  1408 ;; *************** function _Enable *****************
  1409 ;; Defined at:
  1410 ;;		line 22 in file "D:\Dropbox\TC - 2015\Pesquisas\PIC\8 - Dispositivo 1\LCD_Claudio.c"
  1411 ;; Parameters:    Size  Location     Type
  1412 ;;		None
  1413 ;; Auto vars:     Size  Location     Type
  1414 ;;		None
  1415 ;; Return value:  Size  Location     Type
  1416 ;;		None               void
  1417 ;; Registers used:
  1418 ;;		None
  1419 ;; Tracked objects:
  1420 ;;		On entry : 0/0
  1421 ;;		On exit  : 0/0
  1422 ;;		Unchanged: 0/0
  1423 ;; Data sizes:     COMMON   BANK0   BANK1   BANK2
  1424 ;;      Params:         0       0       0       0
  1425 ;;      Locals:         0       0       0       0
  1426 ;;      Temps:          0       0       0       0
  1427 ;;      Totals:         0       0       0       0
  1428 ;;Total ram usage:        0 bytes
  1429 ;; Hardware stack levels used:    1
  1430 ;; Hardware stack levels required when called:    7
  1431 ;; This function calls:
  1432 ;;		Nothing
  1433 ;; This function is called by:
  1434 ;;		_Write
  1435 ;;		_lcd_init
  1436 ;; This function uses a non-reentrant model
  1437 ;;
  1438                           psect	text509
  1439                           	file	"D:\Dropbox\TC - 2015\Pesquisas\PIC\8 - Dispositivo 1\LCD_Claudio.c"
  1440                           	line	22
  1441                           	global	__size_of_Enable
  1442  0008                     	__size_of_Enable	equ	__end_of_Enable-_Enable
  1443                           	
  1444  0409                     _Enable:	
  1445 ;; hardware stack exceeded
  1446                           	opt	stack 0
  1447                           ; Regs used in _Enable: []
  1448                           	line	23
  1449                           	
  1450  0409                     l3709:	
  1451                           ;LCD_Claudio.c: 23: RC7=1;
  1452  0409  1283               	bcf	status, 5	;RP0=0, select bank0
  1453  040A  1303               	bcf	status, 6	;RP1=0, select bank0
  1454  040B  1787               	bsf	(63/8),(63)&7
  1455                           	line	24
  1456                           ;LCD_Claudio.c: 24: _delay((unsigned long)((2)*(4000000/4000000.0)));
  1457                           		opt asmopt_off
  1458  040C  2C0D               	nop2	;2 cycle nop
  1459                           	opt asmopt_on
  1460                           
  1461                           	line	25
  1462                           ;LCD_Claudio.c: 25: RC7=0;
  1463  040D  1283               	bcf	status, 5	;RP0=0, select bank0
  1464  040E  1303               	bcf	status, 6	;RP1=0, select bank0
  1465  040F  1387               	bcf	(63/8),(63)&7
  1466                           	line	26
  1467                           	
  1468  0410                     l911:	
  1469  0410  0008               	return
  1470                           	opt stack 0
  1471                           GLOBAL	__end_of_Enable
  1472  0411                     	__end_of_Enable:
  1473 ;; =============== function _Enable ends ============
  1474                           
  1475                           	signat	_Enable,88
  1476                           	global	_serial_init
  1477                           psect	text510,local,class=CODE,delta=2
  1478                           global __ptext510
  1479  0385                     __ptext510:
  1480                           
  1481 ;; *************** function _serial_init *****************
  1482 ;; Defined at:
  1483 ;;		line 108 in file "D:\Dropbox\TC - 2015\Pesquisas\PIC\8 - Dispositivo 1\Dispositivo_1.c"
  1484 ;; Parameters:    Size  Location     Type
  1485 ;;		None
  1486 ;; Auto vars:     Size  Location     Type
  1487 ;;		None
  1488 ;; Return value:  Size  Location     Type
  1489 ;;		None               void
  1490 ;; Registers used:
  1491 ;;		wreg, status,2
  1492 ;; Tracked objects:
  1493 ;;		On entry : 0/0
  1494 ;;		On exit  : 0/0
  1495 ;;		Unchanged: 0/0
  1496 ;; Data sizes:     COMMON   BANK0   BANK1   BANK2
  1497 ;;      Params:         0       0       0       0
  1498 ;;      Locals:         0       0       0       0
  1499 ;;      Temps:          0       0       0       0
  1500 ;;      Totals:         0       0       0       0
  1501 ;;Total ram usage:        0 bytes
  1502 ;; Hardware stack levels used:    1
  1503 ;; Hardware stack levels required when called:    7
  1504 ;; This function calls:
  1505 ;;		Nothing
  1506 ;; This function is called by:
  1507 ;;		_main
  1508 ;; This function uses a non-reentrant model
  1509 ;;
  1510                           psect	text510
  1511                           	file	"D:\Dropbox\TC - 2015\Pesquisas\PIC\8 - Dispositivo 1\Dispositivo_1.c"
  1512                           	line	108
  1513                           	global	__size_of_serial_init
  1514  0017                     	__size_of_serial_init	equ	__end_of_serial_init-_serial_init
  1515                           	
  1516  0385                     _serial_init:	
  1517                           	opt	stack 0
  1518                           ; Regs used in _serial_init: [wreg+status,2]
  1519                           	line	109
  1520                           	
  1521  0385                     l3619:	
  1522                           ;Dispositivo_1.c: 109: SYNC=0;
  1523  0385  1683               	bsf	status, 5	;RP0=1, select bank1
  1524  0386  1303               	bcf	status, 6	;RP1=0, select bank1
  1525  0387  1218               	bcf	(1220/8)^080h,(1220)&7
  1526                           	line	110
  1527                           ;Dispositivo_1.c: 110: BRGH=1;
  1528  0388  1518               	bsf	(1218/8)^080h,(1218)&7
  1529                           	line	111
  1530                           ;Dispositivo_1.c: 111: BRG16=0;
  1531  0389  119B               	bcf	(1243/8)^080h,(1243)&7
  1532                           	line	112
  1533                           	
  1534  038A                     l3621:	
  1535                           ;Dispositivo_1.c: 112: SPBRGH=0;
  1536  038A  019A               	clrf	(154)^080h	;volatile
  1537                           	line	113
  1538                           	
  1539  038B                     l3623:	
  1540                           ;Dispositivo_1.c: 113: SPBRG=51;
  1541  038B  3033               	movlw	(033h)
  1542  038C  0099               	movwf	(153)^080h	;volatile
  1543                           	line	114
  1544                           	
  1545  038D                     l3625:	
  1546                           ;Dispositivo_1.c: 114: SPEN=1;
  1547  038D  1283               	bcf	status, 5	;RP0=0, select bank0
  1548  038E  1303               	bcf	status, 6	;RP1=0, select bank0
  1549  038F  1798               	bsf	(199/8),(199)&7
  1550                           	line	115
  1551                           	
  1552  0390                     l3627:	
  1553                           ;Dispositivo_1.c: 115: TX9=0;
  1554  0390  1683               	bsf	status, 5	;RP0=1, select bank1
  1555  0391  1303               	bcf	status, 6	;RP1=0, select bank1
  1556  0392  1318               	bcf	(1222/8)^080h,(1222)&7
  1557                           	line	116
  1558                           	
  1559  0393                     l3629:	
  1560                           ;Dispositivo_1.c: 116: TXEN=1;
  1561  0393  1698               	bsf	(1221/8)^080h,(1221)&7
  1562                           	line	117
  1563                           	
  1564  0394                     l3631:	
  1565                           ;Dispositivo_1.c: 117: TXIE=0;
  1566  0394  120C               	bcf	(1124/8)^080h,(1124)&7
  1567                           	line	118
  1568                           	
  1569  0395                     l3633:	
  1570                           ;Dispositivo_1.c: 118: RCIE=1;
  1571  0395  168C               	bsf	(1125/8)^080h,(1125)&7
  1572                           	line	119
  1573                           	
  1574  0396                     l3635:	
  1575                           ;Dispositivo_1.c: 119: PEIE=1;
  1576  0396  170B               	bsf	(94/8),(94)&7
  1577                           	line	120
  1578                           	
  1579  0397                     l3637:	
  1580                           ;Dispositivo_1.c: 120: RX9=0;
  1581  0397  1283               	bcf	status, 5	;RP0=0, select bank0
  1582  0398  1303               	bcf	status, 6	;RP1=0, select bank0
  1583  0399  1318               	bcf	(198/8),(198)&7
  1584                           	line	121
  1585                           	
  1586  039A                     l3639:	
  1587                           ;Dispositivo_1.c: 121: CREN=1;
  1588  039A  1618               	bsf	(196/8),(196)&7
  1589                           	line	122
  1590                           	
  1591  039B                     l980:	
  1592  039B  0008               	return
  1593                           	opt stack 0
  1594                           GLOBAL	__end_of_serial_init
  1595  039C                     	__end_of_serial_init:
  1596 ;; =============== function _serial_init ends ============
  1597                           
  1598                           	signat	_serial_init,88
  1599                           	global	_T2_init
  1600                           psect	text511,local,class=CODE,delta=2
  1601                           global __ptext511
  1602  03D4                     __ptext511:
  1603                           
  1604 ;; *************** function _T2_init *****************
  1605 ;; Defined at:
  1606 ;;		line 99 in file "D:\Dropbox\TC - 2015\Pesquisas\PIC\8 - Dispositivo 1\Dispositivo_1.c"
  1607 ;; Parameters:    Size  Location     Type
  1608 ;;		None
  1609 ;; Auto vars:     Size  Location     Type
  1610 ;;		None
  1611 ;; Return value:  Size  Location     Type
  1612 ;;		None               void
  1613 ;; Registers used:
  1614 ;;		wreg, status,2
  1615 ;; Tracked objects:
  1616 ;;		On entry : 0/0
  1617 ;;		On exit  : 0/0
  1618 ;;		Unchanged: 0/0
  1619 ;; Data sizes:     COMMON   BANK0   BANK1   BANK2
  1620 ;;      Params:         0       0       0       0
  1621 ;;      Locals:         0       0       0       0
  1622 ;;      Temps:          0       0       0       0
  1623 ;;      Totals:         0       0       0       0
  1624 ;;Total ram usage:        0 bytes
  1625 ;; Hardware stack levels used:    1
  1626 ;; Hardware stack levels required when called:    7
  1627 ;; This function calls:
  1628 ;;		Nothing
  1629 ;; This function is called by:
  1630 ;;		_main
  1631 ;; This function uses a non-reentrant model
  1632 ;;
  1633                           psect	text511
  1634                           	file	"D:\Dropbox\TC - 2015\Pesquisas\PIC\8 - Dispositivo 1\Dispositivo_1.c"
  1635                           	line	99
  1636                           	global	__size_of_T2_init
  1637  0010                     	__size_of_T2_init	equ	__end_of_T2_init-_T2_init
  1638                           	
  1639  03D4                     _T2_init:	
  1640                           	opt	stack 0
  1641                           ; Regs used in _T2_init: [wreg+status,2]
  1642                           	line	100
  1643                           	
  1644  03D4                     l3609:	
  1645                           ;Dispositivo_1.c: 100: T2CON=0;
  1646  03D4  1283               	bcf	status, 5	;RP0=0, select bank0
  1647  03D5  1303               	bcf	status, 6	;RP1=0, select bank0
  1648  03D6  0192               	clrf	(18)	;volatile
  1649                           	line	101
  1650                           ;Dispositivo_1.c: 101: TMR2=0;
  1651  03D7  0191               	clrf	(17)	;volatile
  1652                           	line	102
  1653                           	
  1654  03D8                     l3611:	
  1655                           ;Dispositivo_1.c: 102: PR2=19;
  1656  03D8  3013               	movlw	(013h)
  1657  03D9  1683               	bsf	status, 5	;RP0=1, select bank1
  1658  03DA  1303               	bcf	status, 6	;RP1=0, select bank1
  1659  03DB  0092               	movwf	(146)^080h	;volatile
  1660                           	line	103
  1661                           	
  1662  03DC                     l3613:	
  1663                           ;Dispositivo_1.c: 103: CCP1CON=0b00001111;
  1664  03DC  300F               	movlw	(0Fh)
  1665  03DD  1283               	bcf	status, 5	;RP0=0, select bank0
  1666  03DE  1303               	bcf	status, 6	;RP1=0, select bank0
  1667  03DF  0097               	movwf	(23)	;volatile
  1668                           	line	104
  1669                           	
  1670  03E0                     l3615:	
  1671                           ;Dispositivo_1.c: 104: CCPR1L=20;
  1672  03E0  3014               	movlw	(014h)
  1673  03E1  0095               	movwf	(21)	;volatile
  1674                           	line	105
  1675                           	
  1676  03E2                     l3617:	
  1677                           ;Dispositivo_1.c: 105: TMR2ON=1;
  1678  03E2  1512               	bsf	(146/8),(146)&7
  1679                           	line	106
  1680                           	
  1681  03E3                     l977:	
  1682  03E3  0008               	return
  1683                           	opt stack 0
  1684                           GLOBAL	__end_of_T2_init
  1685  03E4                     	__end_of_T2_init:
  1686 ;; =============== function _T2_init ends ============
  1687                           
  1688                           	signat	_T2_init,88
  1689                           	global	_T1_init
  1690                           psect	text512,local,class=CODE,delta=2
  1691                           global __ptext512
  1692  03E4                     __ptext512:
  1693                           
  1694 ;; *************** function _T1_init *****************
  1695 ;; Defined at:
  1696 ;;		line 92 in file "D:\Dropbox\TC - 2015\Pesquisas\PIC\8 - Dispositivo 1\Dispositivo_1.c"
  1697 ;; Parameters:    Size  Location     Type
  1698 ;;		None
  1699 ;; Auto vars:     Size  Location     Type
  1700 ;;		None
  1701 ;; Return value:  Size  Location     Type
  1702 ;;		None               void
  1703 ;; Registers used:
  1704 ;;		wreg
  1705 ;; Tracked objects:
  1706 ;;		On entry : 0/0
  1707 ;;		On exit  : 0/0
  1708 ;;		Unchanged: 0/0
  1709 ;; Data sizes:     COMMON   BANK0   BANK1   BANK2
  1710 ;;      Params:         0       0       0       0
  1711 ;;      Locals:         0       0       0       0
  1712 ;;      Temps:          0       0       0       0
  1713 ;;      Totals:         0       0       0       0
  1714 ;;Total ram usage:        0 bytes
  1715 ;; Hardware stack levels used:    1
  1716 ;; Hardware stack levels required when called:    7
  1717 ;; This function calls:
  1718 ;;		Nothing
  1719 ;; This function is called by:
  1720 ;;		_main
  1721 ;; This function uses a non-reentrant model
  1722 ;;
  1723                           psect	text512
  1724                           	file	"D:\Dropbox\TC - 2015\Pesquisas\PIC\8 - Dispositivo 1\Dispositivo_1.c"
  1725                           	line	92
  1726                           	global	__size_of_T1_init
  1727  000F                     	__size_of_T1_init	equ	__end_of_T1_init-_T1_init
  1728                           	
  1729  03E4                     _T1_init:	
  1730                           	opt	stack 0
  1731                           ; Regs used in _T1_init: [wreg]
  1732                           	line	93
  1733                           	
  1734  03E4                     l3603:	
  1735                           ;Dispositivo_1.c: 93: T1CON=0b00110100;
  1736  03E4  3034               	movlw	(034h)
  1737  03E5  1283               	bcf	status, 5	;RP0=0, select bank0
  1738  03E6  1303               	bcf	status, 6	;RP1=0, select bank0
  1739  03E7  0090               	movwf	(16)	;volatile
  1740                           	line	94
  1741                           	
  1742  03E8                     l3605:	
  1743                           ;Dispositivo_1.c: 94: TMR1IF=0;
  1744  03E8  100C               	bcf	(96/8),(96)&7
  1745                           	line	95
  1746                           	
  1747  03E9                     l3607:	
  1748                           ;Dispositivo_1.c: 95: TMR1IE=1;
  1749  03E9  1683               	bsf	status, 5	;RP0=1, select bank1
  1750  03EA  1303               	bcf	status, 6	;RP1=0, select bank1
  1751  03EB  140C               	bsf	(1120/8)^080h,(1120)&7
  1752                           	line	96
  1753                           ;Dispositivo_1.c: 96: TMR1=51536;
  1754  03EC  3050               	movlw	low(0C950h)
  1755  03ED  1283               	bcf	status, 5	;RP0=0, select bank0
  1756  03EE  1303               	bcf	status, 6	;RP1=0, select bank0
  1757  03EF  008E               	movwf	(14)	;volatile
  1758  03F0  30C9               	movlw	high(0C950h)
  1759  03F1  008F               	movwf	((14))+1	;volatile
  1760                           	line	97
  1761                           	
  1762  03F2                     l974:	
  1763  03F2  0008               	return
  1764                           	opt stack 0
  1765                           GLOBAL	__end_of_T1_init
  1766  03F3                     	__end_of_T1_init:
  1767 ;; =============== function _T1_init ends ============
  1768                           
  1769                           	signat	_T1_init,88
  1770                           	global	_protocol
  1771                           psect	text513,local,class=CODE,delta=2
  1772                           global __ptext513
  1773  02E6                     __ptext513:
  1774                           
  1775 ;; *************** function _protocol *****************
  1776 ;; Defined at:
  1777 ;;		line 34 in file "D:\Dropbox\TC - 2015\Pesquisas\PIC\8 - Dispositivo 1\Dispositivo_1.c"
  1778 ;; Parameters:    Size  Location     Type
  1779 ;;		None
  1780 ;; Auto vars:     Size  Location     Type
  1781 ;;		None
  1782 ;; Return value:  Size  Location     Type
  1783 ;;		None               void
  1784 ;; Registers used:
  1785 ;;		wreg, status,2, status,0
  1786 ;; Tracked objects:
  1787 ;;		On entry : 0/0
  1788 ;;		On exit  : 0/0
  1789 ;;		Unchanged: 0/0
  1790 ;; Data sizes:     COMMON   BANK0   BANK1   BANK2
  1791 ;;      Params:         0       0       0       0
  1792 ;;      Locals:         0       0       0       0
  1793 ;;      Temps:          0       1       0       0
  1794 ;;      Totals:         0       1       0       0
  1795 ;;Total ram usage:        1 bytes
  1796 ;; Hardware stack levels used:    1
  1797 ;; Hardware stack levels required when called:    7
  1798 ;; This function calls:
  1799 ;;		Nothing
  1800 ;; This function is called by:
  1801 ;;		_main
  1802 ;; This function uses a non-reentrant model
  1803 ;;
  1804                           psect	text513
  1805                           	file	"D:\Dropbox\TC - 2015\Pesquisas\PIC\8 - Dispositivo 1\Dispositivo_1.c"
  1806                           	line	34
  1807                           	global	__size_of_protocol
  1808  002D                     	__size_of_protocol	equ	__end_of_protocol-_protocol
  1809                           	
  1810  02E6                     _protocol:	
  1811                           	opt	stack 0
  1812                           ; Regs used in _protocol: [wreg+status,2+status,0]
  1813                           	line	35
  1814                           	
  1815  02E6                     l3495:	
  1816                           ;Dispositivo_1.c: 35: if(dado_rx==20){
  1817  02E6  1283               	bcf	status, 5	;RP0=0, select bank0
  1818  02E7  1303               	bcf	status, 6	;RP1=0, select bank0
  1819  02E8  083E               	movf	(_dado_rx),w
  1820  02E9  3A14               	xorlw	014h
  1821  02EA  1D03               	skipz
  1822  02EB  2AED               	goto	u2511
  1823  02EC  2AEE               	goto	u2510
  1824  02ED                     u2511:
  1825  02ED  2AF0               	goto	l3499
  1826  02EE                     u2510:
  1827                           	line	36
  1828                           	
  1829  02EE                     l3497:	
  1830                           ;Dispositivo_1.c: 36: RA4=0;
  1831  02EE  1205               	bcf	(44/8),(44)&7
  1832                           	line	37
  1833                           ;Dispositivo_1.c: 37: }
  1834  02EF  2B12               	goto	l956
  1835                           	line	38
  1836                           	
  1837  02F0                     l949:	
  1838                           	
  1839  02F0                     l3499:	
  1840                           ;Dispositivo_1.c: 38: else if(dado_rx==21){
  1841  02F0  083E               	movf	(_dado_rx),w
  1842  02F1  3A15               	xorlw	015h
  1843  02F2  1D03               	skipz
  1844  02F3  2AF5               	goto	u2521
  1845  02F4  2AF6               	goto	u2520
  1846  02F5                     u2521:
  1847  02F5  2AF8               	goto	l3503
  1848  02F6                     u2520:
  1849                           	line	39
  1850                           	
  1851  02F6                     l3501:	
  1852                           ;Dispositivo_1.c: 39: RA4=1;
  1853  02F6  1605               	bsf	(44/8),(44)&7
  1854                           	line	40
  1855                           ;Dispositivo_1.c: 40: }
  1856  02F7  2B12               	goto	l956
  1857                           	line	41
  1858                           	
  1859  02F8                     l951:	
  1860                           	
  1861  02F8                     l3503:	
  1862                           ;Dispositivo_1.c: 41: else if(dado_rx==128){
  1863  02F8  083E               	movf	(_dado_rx),w
  1864  02F9  3A80               	xorlw	080h
  1865  02FA  1D03               	skipz
  1866  02FB  2AFD               	goto	u2531
  1867  02FC  2AFE               	goto	u2530
  1868  02FD                     u2531:
  1869  02FD  2B04               	goto	l3509
  1870  02FE                     u2530:
  1871                           	line	42
  1872                           	
  1873  02FE                     l3505:	
  1874                           ;Dispositivo_1.c: 42: RA4=0;
  1875  02FE  1205               	bcf	(44/8),(44)&7
  1876                           	line	43
  1877                           	
  1878  02FF                     l3507:	
  1879                           ;Dispositivo_1.c: 43: enviando=2;
  1880  02FF  3002               	movlw	(02h)
  1881  0300  00B4               	movwf	(??_protocol+0)+0
  1882  0301  0834               	movf	(??_protocol+0)+0,w
  1883  0302  00BF               	movwf	(_enviando)
  1884                           	line	44
  1885                           ;Dispositivo_1.c: 44: }
  1886  0303  2B12               	goto	l956
  1887                           	line	45
  1888                           	
  1889  0304                     l953:	
  1890                           	
  1891  0304                     l3509:	
  1892                           ;Dispositivo_1.c: 45: else if(dado_rx==129){
  1893  0304  083E               	movf	(_dado_rx),w
  1894  0305  3A81               	xorlw	081h
  1895  0306  1D03               	skipz
  1896  0307  2B09               	goto	u2541
  1897  0308  2B0A               	goto	u2540
  1898  0309                     u2541:
  1899  0309  2B12               	goto	l956
  1900  030A                     u2540:
  1901                           	line	46
  1902                           	
  1903  030A                     l3511:	
  1904                           ;Dispositivo_1.c: 46: RA4=1;
  1905  030A  1605               	bsf	(44/8),(44)&7
  1906                           	line	47
  1907                           	
  1908  030B                     l3513:	
  1909                           ;Dispositivo_1.c: 47: enviando=1;
  1910  030B  01BF               	clrf	(_enviando)
  1911  030C  1403               	bsf	status,0
  1912  030D  0DBF               	rlf	(_enviando),f
  1913  030E  2B12               	goto	l956
  1914                           	line	48
  1915                           	
  1916  030F                     l955:	
  1917  030F  2B12               	goto	l956
  1918                           	line	49
  1919                           	
  1920  0310                     l954:	
  1921  0310  2B12               	goto	l956
  1922                           	
  1923  0311                     l952:	
  1924  0311  2B12               	goto	l956
  1925                           	
  1926  0312                     l950:	
  1927                           	
  1928  0312                     l956:	
  1929  0312  0008               	return
  1930                           	opt stack 0
  1931                           GLOBAL	__end_of_protocol
  1932  0313                     	__end_of_protocol:
  1933 ;; =============== function _protocol ends ============
  1934                           
  1935                           	signat	_protocol,88
  1936                           	global	_interrupts
  1937                           psect	text514,local,class=CODE,delta=2
  1938                           global __ptext514
  1939  00ED                     __ptext514:
  1940                           
  1941 ;; *************** function _interrupts *****************
  1942 ;; Defined at:
  1943 ;;		line 51 in file "D:\Dropbox\TC - 2015\Pesquisas\PIC\8 - Dispositivo 1\Dispositivo_1.c"
  1944 ;; Parameters:    Size  Location     Type
  1945 ;;		None
  1946 ;; Auto vars:     Size  Location     Type
  1947 ;;		None
  1948 ;; Return value:  Size  Location     Type
  1949 ;;		None               void
  1950 ;; Registers used:
  1951 ;;		wreg, fsr0l, fsr0h, fsr1l, fsr1h, status,2, status,0, btemp+1, pclath, cstack
  1952 ;; Tracked objects:
  1953 ;;		On entry : 0/0
  1954 ;;		On exit  : 0/0
  1955 ;;		Unchanged: 0/0
  1956 ;; Data sizes:     COMMON   BANK0   BANK1   BANK2
  1957 ;;      Params:         0       0       0       0
  1958 ;;      Locals:         0       0       0       0
  1959 ;;      Temps:          0       6       0       0
  1960 ;;      Totals:         0       6       0       0
  1961 ;;Total ram usage:        6 bytes
  1962 ;; Hardware stack levels used:    1
  1963 ;; Hardware stack levels required when called:    6
  1964 ;; This function calls:
  1965 ;;		_printf
  1966 ;; This function is called by:
  1967 ;;		Interrupt level 1
  1968 ;; This function uses a non-reentrant model
  1969 ;;
  1970                           psect	text514
  1971                           	file	"D:\Dropbox\TC - 2015\Pesquisas\PIC\8 - Dispositivo 1\Dispositivo_1.c"
  1972                           	line	51
  1973                           	global	__size_of_interrupts
  1974  0078                     	__size_of_interrupts	equ	__end_of_interrupts-_interrupts
  1975                           	
  1976  00ED                     _interrupts:	
  1977 ;; hardware stack exceeded
  1978                           	opt	stack 0
  1979                           ; Regs used in _interrupts: [allreg]
  1980                           psect	intentry,class=CODE,delta=2
  1981                           global __pintentry
  1982  0004                     __pintentry:
  1983                           global interrupt_function
  1984  0004                     interrupt_function:
  1985                           	global saved_w
  1986  007E                     	saved_w	set	btemp+0
  1987  0004  00FE               	movwf	saved_w
  1988  0005  0E03               	swapf	status,w
  1989  0006  1283               	bcf	status, 5	;RP0=0, select bank0
  1990  0007  1303               	bcf	status, 6	;RP1=0, select bank0
  1991  0008  00B0               	movwf	(??_interrupts+2)
  1992  0009  0804               	movf	fsr0,w
  1993  000A  00B1               	movwf	(??_interrupts+3)
  1994  000B  080A               	movf	pclath,w
  1995  000C  00B2               	movwf	(??_interrupts+4)
  1996  000D  087F               	movf	btemp+1,w
  1997  000E  00B3               	movwf	(??_interrupts+5)
  1998  000F  118A  28ED         	ljmp	_interrupts
  1999                           psect	text514
  2000                           	line	52
  2001                           	
  2002  00ED                     i1l3515:	
  2003                           ;Dispositivo_1.c: 52: if(INTF){
  2004  00ED  1C8B               	btfss	(89/8),(89)&7
  2005  00EE  28F0               	goto	u255_21
  2006  00EF  28F1               	goto	u255_20
  2007  00F0                     u255_21:
  2008  00F0  2907               	goto	i1l3527
  2009  00F1                     u255_20:
  2010                           	line	53
  2011                           	
  2012  00F1                     i1l3517:	
  2013                           ;Dispositivo_1.c: 53: if(!enviando){
  2014  00F1  08BF               	movf	(_enviando),f
  2015  00F2  1D03               	skipz
  2016  00F3  28F5               	goto	u256_21
  2017  00F4  28F6               	goto	u256_20
  2018  00F5                     u256_21:
  2019  00F5  28FB               	goto	i1l3521
  2020  00F6                     u256_20:
  2021                           	line	54
  2022                           	
  2023  00F6                     i1l3519:	
  2024                           ;Dispositivo_1.c: 54: TMR1ON=1;
  2025  00F6  1410               	bsf	(128/8),(128)&7
  2026                           	line	55
  2027                           ;Dispositivo_1.c: 55: testa=1;
  2028  00F7  1683               	bsf	status, 5	;RP0=1, select bank1
  2029  00F8  1303               	bcf	status, 6	;RP1=0, select bank1
  2030  00F9  1520               	bsf	(_testa/8)^080h,(_testa)&7
  2031                           	line	56
  2032                           ;Dispositivo_1.c: 56: }
  2033  00FA  2905               	goto	i1l3525
  2034                           	line	57
  2035                           	
  2036  00FB                     i1l960:	
  2037                           	
  2038  00FB                     i1l3521:	
  2039                           ;Dispositivo_1.c: 57: else if(enviando){
  2040  00FB  1283               	bcf	status, 5	;RP0=0, select bank0
  2041  00FC  083F               	movf	(_enviando),w
  2042  00FD  1D03               	skipz
  2043  00FE  2900               	goto	u257_20
  2044  00FF  2905               	goto	i1l3525
  2045  0100                     u257_20:
  2046                           	line	58
  2047                           	
  2048  0100                     i1l3523:	
  2049                           ;Dispositivo_1.c: 58: enviar=1;
  2050  0100  01C0               	clrf	(_enviar)
  2051  0101  1403               	bsf	status,0
  2052  0102  0DC0               	rlf	(_enviar),f
  2053  0103  2905               	goto	i1l3525
  2054                           	line	59
  2055                           	
  2056  0104                     i1l962:	
  2057  0104  2905               	goto	i1l3525
  2058                           	line	60
  2059                           	
  2060  0105                     i1l961:	
  2061                           	
  2062  0105                     i1l3525:	
  2063                           ;Dispositivo_1.c: 59: }
  2064                           ;Dispositivo_1.c: 60: INTF=0;
  2065  0105  108B               	bcf	(89/8),(89)&7
  2066  0106  2907               	goto	i1l3527
  2067                           	line	61
  2068                           	
  2069  0107                     i1l959:	
  2070                           	line	62
  2071                           	
  2072  0107                     i1l3527:	
  2073                           ;Dispositivo_1.c: 61: }
  2074                           ;Dispositivo_1.c: 62: if(TMR1IF){
  2075  0107  1283               	bcf	status, 5	;RP0=0, select bank0
  2076  0108  1C0C               	btfss	(96/8),(96)&7
  2077  0109  290B               	goto	u258_21
  2078  010A  290C               	goto	u258_20
  2079  010B                     u258_21:
  2080  010B  2925               	goto	i1l963
  2081  010C                     u258_20:
  2082                           	line	63
  2083                           	
  2084  010C                     i1l3529:	
  2085                           ;Dispositivo_1.c: 63: TMR1ON=0;
  2086  010C  1010               	bcf	(128/8),(128)&7
  2087                           	line	64
  2088                           	
  2089  010D                     i1l3531:	
  2090                           ;Dispositivo_1.c: 64: TMR1=51536;
  2091  010D  3050               	movlw	low(0C950h)
  2092  010E  008E               	movwf	(14)	;volatile
  2093  010F  30C9               	movlw	high(0C950h)
  2094  0110  008F               	movwf	((14))+1	;volatile
  2095                           	line	65
  2096                           	
  2097  0111                     i1l3533:	
  2098                           ;Dispositivo_1.c: 65: TMR1IF=0;
  2099  0111  100C               	bcf	(96/8),(96)&7
  2100                           	line	66
  2101                           ;Dispositivo_1.c: 66: if(cont==1){
  2102  0112  083D               	movf	(_cont),w
  2103  0113  3A01               	xorlw	01h
  2104  0114  1D03               	skipz
  2105  0115  2917               	goto	u259_21
  2106  0116  2918               	goto	u259_20
  2107  0117                     u259_21:
  2108  0117  291A               	goto	i1l3537
  2109  0118                     u259_20:
  2110                           	line	67
  2111                           	
  2112  0118                     i1l3535:	
  2113                           ;Dispositivo_1.c: 67: RA4=1;
  2114  0118  1605               	bsf	(44/8),(44)&7
  2115  0119  291A               	goto	i1l3537
  2116                           	line	68
  2117                           	
  2118  011A                     i1l964:	
  2119                           	line	69
  2120                           	
  2121  011A                     i1l3537:	
  2122                           ;Dispositivo_1.c: 68: }
  2123                           ;Dispositivo_1.c: 69: if(cont==2){
  2124  011A  083D               	movf	(_cont),w
  2125  011B  3A02               	xorlw	02h
  2126  011C  1D03               	skipz
  2127  011D  291F               	goto	u260_21
  2128  011E  2920               	goto	u260_20
  2129  011F                     u260_21:
  2130  011F  2921               	goto	i1l965
  2131  0120                     u260_20:
  2132                           	line	70
  2133                           	
  2134  0120                     i1l3539:	
  2135                           ;Dispositivo_1.c: 70: RA4=0;
  2136  0120  1205               	bcf	(44/8),(44)&7
  2137                           	line	71
  2138                           	
  2139  0121                     i1l965:	
  2140                           	line	72
  2141                           ;Dispositivo_1.c: 71: }
  2142                           ;Dispositivo_1.c: 72: cont=0;
  2143  0121  01BD               	clrf	(_cont)
  2144                           	line	73
  2145                           ;Dispositivo_1.c: 73: recebeu=0;
  2146  0122  1683               	bsf	status, 5	;RP0=1, select bank1
  2147  0123  1303               	bcf	status, 6	;RP1=0, select bank1
  2148  0124  10A0               	bcf	(_recebeu/8)^080h,(_recebeu)&7
  2149                           	line	74
  2150                           	
  2151  0125                     i1l963:	
  2152                           	line	75
  2153                           ;Dispositivo_1.c: 74: }
  2154                           ;Dispositivo_1.c: 75: if(RCIF==1 && RCIE==1){
  2155  0125  1283               	bcf	status, 5	;RP0=0, select bank0
  2156  0126  1E8C               	btfss	(101/8),(101)&7
  2157  0127  2929               	goto	u261_21
  2158  0128  292A               	goto	u261_20
  2159  0129                     u261_21:
  2160  0129  2959               	goto	i1l971
  2161  012A                     u261_20:
  2162                           	
  2163  012A                     i1l3541:	
  2164  012A  1683               	bsf	status, 5	;RP0=1, select bank1
  2165  012B  1303               	bcf	status, 6	;RP1=0, select bank1
  2166  012C  1E8C               	btfss	(1125/8)^080h,(1125)&7
  2167  012D  292F               	goto	u262_21
  2168  012E  2930               	goto	u262_20
  2169  012F                     u262_21:
  2170  012F  2959               	goto	i1l971
  2171  0130                     u262_20:
  2172                           	line	76
  2173                           	
  2174  0130                     i1l3543:	
  2175                           ;Dispositivo_1.c: 76: if(FERR==1){
  2176  0130  1283               	bcf	status, 5	;RP0=0, select bank0
  2177  0131  1303               	bcf	status, 6	;RP1=0, select bank0
  2178  0132  1D18               	btfss	(194/8),(194)&7
  2179  0133  2935               	goto	u263_21
  2180  0134  2936               	goto	u263_20
  2181  0135                     u263_21:
  2182  0135  293B               	goto	i1l967
  2183  0136                     u263_20:
  2184                           	line	77
  2185                           	
  2186  0136                     i1l3545:	
  2187                           ;Dispositivo_1.c: 77: lixo=RCREG;
  2188  0136  081A               	movf	(26),w	;volatile
  2189  0137  00AE               	movwf	(??_interrupts+0)+0
  2190  0138  082E               	movf	(??_interrupts+0)+0,w
  2191  0139  00C2               	movwf	(_lixo)
  2192                           	line	78
  2193                           ;Dispositivo_1.c: 78: }
  2194  013A  2956               	goto	i1l3555
  2195                           	line	79
  2196                           	
  2197  013B                     i1l967:	
  2198                           ;Dispositivo_1.c: 79: else if(OERR==1){
  2199  013B  1C98               	btfss	(193/8),(193)&7
  2200  013C  293E               	goto	u264_21
  2201  013D  293F               	goto	u264_20
  2202  013E                     u264_21:
  2203  013E  2942               	goto	i1l3549
  2204  013F                     u264_20:
  2205                           	line	80
  2206                           	
  2207  013F                     i1l3547:	
  2208                           ;Dispositivo_1.c: 80: CREN=0;
  2209  013F  1218               	bcf	(196/8),(196)&7
  2210                           	line	81
  2211                           ;Dispositivo_1.c: 81: CREN=1;
  2212  0140  1618               	bsf	(196/8),(196)&7
  2213                           	line	82
  2214                           ;Dispositivo_1.c: 82: }
  2215  0141  2956               	goto	i1l3555
  2216                           	line	83
  2217                           	
  2218  0142                     i1l969:	
  2219                           	line	84
  2220                           	
  2221  0142                     i1l3549:	
  2222                           ;Dispositivo_1.c: 83: else{
  2223                           ;Dispositivo_1.c: 84: dado_rx=RCREG;
  2224  0142  081A               	movf	(26),w	;volatile
  2225  0143  00AE               	movwf	(??_interrupts+0)+0
  2226  0144  082E               	movf	(??_interrupts+0)+0,w
  2227  0145  00BE               	movwf	(_dado_rx)
  2228                           	line	85
  2229                           	
  2230  0146                     i1l3551:	
  2231                           ;Dispositivo_1.c: 85: printf("\f%d",dado_rx);
  2232  0146  083E               	movf	(_dado_rx),w
  2233  0147  00AE               	movwf	(??_interrupts+0)+0
  2234  0148  01AF               	clrf	(??_interrupts+0)+0+1
  2235  0149  082E               	movf	0+(??_interrupts+0)+0,w
  2236  014A  00A0               	movwf	(?_printf)
  2237  014B  082F               	movf	1+(??_interrupts+0)+0,w
  2238  014C  00A1               	movwf	(?_printf+1)
  2239  014D  300B               	movlw	((STR_1-__stringbase))&0ffh
  2240  014E  118A  2013  118A   	fcall	_printf
  2241                           	line	86
  2242                           	
  2243  0151                     i1l3553:	
  2244                           ;Dispositivo_1.c: 86: bt_flag=1;
  2245  0151  1683               	bsf	status, 5	;RP0=1, select bank1
  2246  0152  1303               	bcf	status, 6	;RP1=0, select bank1
  2247  0153  1420               	bsf	(_bt_flag/8)^080h,(_bt_flag)&7
  2248  0154  2956               	goto	i1l3555
  2249                           	line	87
  2250                           	
  2251  0155                     i1l970:	
  2252  0155  2956               	goto	i1l3555
  2253                           	
  2254  0156                     i1l968:	
  2255                           	line	88
  2256                           	
  2257  0156                     i1l3555:	
  2258                           ;Dispositivo_1.c: 87: }
  2259                           ;Dispositivo_1.c: 88: RCIF=0;
  2260  0156  1283               	bcf	status, 5	;RP0=0, select bank0
  2261  0157  128C               	bcf	(101/8),(101)&7
  2262  0158  2959               	goto	i1l971
  2263                           	line	89
  2264                           	
  2265  0159                     i1l966:	
  2266                           	line	90
  2267                           	
  2268  0159                     i1l971:	
  2269  0159  1283               	bcf	status, 5	;RP0=0, select bank0
  2270  015A  0833               	movf	(??_interrupts+5),w
  2271  015B  00FF               	movwf	btemp+1
  2272  015C  0832               	movf	(??_interrupts+4),w
  2273  015D  008A               	movwf	pclath
  2274  015E  0831               	movf	(??_interrupts+3),w
  2275  015F  0084               	movwf	fsr0
  2276  0160  0E30               	swapf	(??_interrupts+2)^00h,w
  2277  0161  0083               	movwf	status
  2278  0162  0EFE               	swapf	saved_w,f
  2279  0163  0E7E               	swapf	saved_w,w
  2280  0164  0009               	retfie
  2281                           	opt stack 0
  2282                           GLOBAL	__end_of_interrupts
  2283  0165                     	__end_of_interrupts:
  2284 ;; =============== function _interrupts ends ============
  2285                           
  2286                           	signat	_interrupts,88
  2287                           	global	_printf
  2288                           psect	text515,local,class=CODE,delta=2
  2289                           global __ptext515
  2290  0013                     __ptext515:
  2291                           
  2292 ;; *************** function _printf *****************
  2293 ;; Defined at:
  2294 ;;		line 461 in file "C:\Program Files (x86)\HI-TECH Software\PICC\9.83\lib\doprnt.c"
  2295 ;; Parameters:    Size  Location     Type
  2296 ;;  f               1    wreg     PTR const unsigned char 
  2297 ;;		 -> STR_1(4), 
  2298 ;; Auto vars:     Size  Location     Type
  2299 ;;  f               1    7[BANK0 ] PTR const unsigned char 
  2300 ;;		 -> STR_1(4), 
  2301 ;;  _val            4    9[BANK0 ] struct .
  2302 ;;  c               1   13[BANK0 ] char 
  2303 ;;  prec            1    8[BANK0 ] char 
  2304 ;;  flag            1    6[BANK0 ] unsigned char 
  2305 ;;  ap              1    5[BANK0 ] PTR void [1]
  2306 ;;		 -> ?_printf(2), 
  2307 ;; Return value:  Size  Location     Type
  2308 ;;                  2    0[BANK0 ] int 
  2309 ;; Registers used:
  2310 ;;		wreg, fsr0l, fsr0h, status,2, status,0, btemp+1, pclath, cstack
  2311 ;; Tracked objects:
  2312 ;;		On entry : 0/0
  2313 ;;		On exit  : 0/0
  2314 ;;		Unchanged: 0/0
  2315 ;; Data sizes:     COMMON   BANK0   BANK1   BANK2
  2316 ;;      Params:         0       2       0       0
  2317 ;;      Locals:         0       9       0       0
  2318 ;;      Temps:          0       3       0       0
  2319 ;;      Totals:         0      14       0       0
  2320 ;;Total ram usage:       14 bytes
  2321 ;; Hardware stack levels used:    1
  2322 ;; Hardware stack levels required when called:    5
  2323 ;; This function calls:
  2324 ;;		_putch
  2325 ;;		___lwdiv
  2326 ;;		___lwmod
  2327 ;; This function is called by:
  2328 ;;		_interrupts
  2329 ;; This function uses a non-reentrant model
  2330 ;;
  2331                           psect	text515
  2332                           	file	"C:\Program Files (x86)\HI-TECH Software\PICC\9.83\sources\doprnt.c"
  2333                           	line	461
  2334                           	global	__size_of_printf
  2335  00DA                     	__size_of_printf	equ	__end_of_printf-_printf
  2336                           	
  2337  0013                     _printf:	
  2338 ;; hardware stack exceeded
  2339                           	opt	stack 0
  2340                           ; Regs used in _printf: [wreg-fsr0h+status,2+status,0+btemp+1+pclath+cstack]
  2341                           ;printf@f stored from wreg
  2342                           	line	537
  2343  0013  1283               	bcf	status, 5	;RP0=0, select bank0
  2344  0014  1303               	bcf	status, 6	;RP1=0, select bank0
  2345  0015  00A7               	movwf	(printf@f)
  2346                           	
  2347  0016                     i1l3557:	
  2348  0016  3020               	movlw	(?_printf)&0ffh
  2349  0017  00A2               	movwf	(??_printf+0)+0
  2350  0018  0822               	movf	(??_printf+0)+0,w
  2351  0019  00A5               	movwf	(printf@ap)
  2352                           	line	540
  2353  001A  28D8               	goto	i1l3601
  2354                           	
  2355  001B                     i1l1000:	
  2356                           	line	542
  2357                           	
  2358  001B                     i1l3559:	
  2359  001B  082D               	movf	(printf@c),w
  2360  001C  3A25               	xorlw	025h
  2361  001D  1903               	skipnz
  2362  001E  2820               	goto	u265_21
  2363  001F  2821               	goto	u265_20
  2364  0020                     u265_21:
  2365  0020  2826               	goto	i1l1001
  2366  0021                     u265_20:
  2367                           	line	545
  2368                           	
  2369  0021                     i1l3561:	
  2370  0021  082D               	movf	(printf@c),w
  2371  0022  118A  2419  118A   	fcall	_putch
  2372                           	line	546
  2373  0025  28D8               	goto	i1l3601
  2374                           	line	547
  2375                           	
  2376  0026                     i1l1001:	
  2377                           	line	552
  2378  0026  01A6               	clrf	(printf@flag)
  2379                           	line	638
  2380  0027  282D               	goto	i1l3565
  2381                           	line	640
  2382                           	
  2383  0028                     i1l1003:	
  2384                           	line	641
  2385  0028  28EC               	goto	i1l1018
  2386                           	line	700
  2387                           	
  2388  0029                     i1l1005:	
  2389  0029  2840               	goto	i1l3567
  2390                           	line	701
  2391                           	
  2392  002A                     i1l1006:	
  2393                           	line	702
  2394  002A  2840               	goto	i1l3567
  2395                           	line	805
  2396                           	
  2397  002B                     i1l1008:	
  2398                           	line	816
  2399  002B  28D8               	goto	i1l3601
  2400                           	line	825
  2401                           	
  2402  002C                     i1l3563:	
  2403  002C  2840               	goto	i1l3567
  2404                           	line	638
  2405                           	
  2406  002D                     i1l1002:	
  2407                           	
  2408  002D                     i1l3565:	
  2409  002D  3001               	movlw	01h
  2410  002E  07A7               	addwf	(printf@f),f
  2411  002F  30FF               	movlw	-01h
  2412  0030  0727               	addwf	(printf@f),w
  2413  0031  0084               	movwf	fsr0
  2414  0032  118A  239C  118A   	fcall	stringdir
  2415  0035  00AD               	movwf	(printf@c)
  2416                           	; Switch size 1, requested type "space"
  2417                           ; Number of cases is 3, Range of values is 0 to 105
  2418                           ; switch strategies available:
  2419                           ; Name         Instructions Cycles
  2420                           ; simple_byte           10     6 (average)
  2421                           ; direct_byte          219     7 (fixed)
  2422                           ; jumptable            260     6 (fixed)
  2423                           ; rangetable           110     6 (fixed)
  2424                           ; spacedrange          218     9 (fixed)
  2425                           ; locatedrange         106     3 (fixed)
  2426                           ;	Chosen strategy is simple_byte
  2427                           
  2428                           	opt asmopt_off
  2429  0036  3A00               	xorlw	0^0	; case 0
  2430  0037  1903               	skipnz
  2431  0038  28EC               	goto	i1l1018
  2432  0039  3A64               	xorlw	100^0	; case 100
  2433  003A  1903               	skipnz
  2434  003B  2840               	goto	i1l3567
  2435  003C  3A0D               	xorlw	105^100	; case 105
  2436  003D  1903               	skipnz
  2437  003E  2840               	goto	i1l3567
  2438  003F  28D8               	goto	i1l3601
  2439                           	opt asmopt_on
  2440                           
  2441                           	line	825
  2442                           	
  2443  0040                     i1l1007:	
  2444                           	line	1254
  2445                           	
  2446  0040                     i1l3567:	
  2447  0040  0825               	movf	(printf@ap),w
  2448  0041  0084               	movwf	fsr0
  2449  0042  1383               	bcf	status, 7	;select IRP bank0
  2450  0043  0800               	movf	indf,w
  2451  0044  00A9               	movwf	(printf@_val)
  2452  0045  0A84               	incf	fsr0,f
  2453  0046  0800               	movf	indf,w
  2454  0047  00AA               	movwf	(printf@_val+1)
  2455                           	
  2456  0048                     i1l3569:	
  2457  0048  3002               	movlw	(02h)
  2458  0049  00A2               	movwf	(??_printf+0)+0
  2459  004A  0822               	movf	(??_printf+0)+0,w
  2460  004B  07A5               	addwf	(printf@ap),f
  2461                           	line	1256
  2462                           	
  2463  004C                     i1l3571:	
  2464  004C  1FAA               	btfss	(printf@_val+1),7
  2465  004D  284F               	goto	u266_21
  2466  004E  2850               	goto	u266_20
  2467  004F                     u266_21:
  2468  004F  285A               	goto	i1l3577
  2469  0050                     u266_20:
  2470                           	line	1257
  2471                           	
  2472  0050                     i1l3573:	
  2473  0050  3003               	movlw	(03h)
  2474  0051  00A2               	movwf	(??_printf+0)+0
  2475  0052  0822               	movf	(??_printf+0)+0,w
  2476  0053  04A6               	iorwf	(printf@flag),f
  2477                           	line	1258
  2478                           	
  2479  0054                     i1l3575:	
  2480  0054  09A9               	comf	(printf@_val),f
  2481  0055  09AA               	comf	(printf@_val+1),f
  2482  0056  0AA9               	incf	(printf@_val),f
  2483  0057  1903               	skipnz
  2484  0058  0AAA               	incf	(printf@_val+1),f
  2485  0059  285A               	goto	i1l3577
  2486                           	line	1259
  2487                           	
  2488  005A                     i1l1009:	
  2489                           	line	1300
  2490                           	
  2491  005A                     i1l3577:	
  2492  005A  01AD               	clrf	(printf@c)
  2493  005B  1403               	bsf	status,0
  2494  005C  0DAD               	rlf	(printf@c),f
  2495                           	
  2496  005D                     i1l3579:	
  2497  005D  082D               	movf	(printf@c),w
  2498  005E  3A05               	xorlw	05h
  2499  005F  1D03               	skipz
  2500  0060  2862               	goto	u267_21
  2501  0061  2863               	goto	u267_20
  2502  0062                     u267_21:
  2503  0062  2865               	goto	i1l3583
  2504  0063                     u267_20:
  2505  0063  2889               	goto	i1l3591
  2506                           	
  2507  0064                     i1l3581:	
  2508  0064  2889               	goto	i1l3591
  2509                           	line	1301
  2510                           	
  2511  0065                     i1l1010:	
  2512                           	
  2513  0065                     i1l3583:	
  2514  0065  082D               	movf	(printf@c),w
  2515  0066  00A2               	movwf	(??_printf+0)+0
  2516  0067  0722               	addwf	(??_printf+0)+0,w
  2517  0068  3E01               	addlw	low((_dpowers-__stringbase))
  2518  0069  0084               	movwf	fsr0
  2519  006A  118A  239C  118A   	fcall	stringdir
  2520  006D  00A3               	movwf	(??_printf+1)+0
  2521  006E  118A  239C  118A   	fcall	stringdir
  2522  0071  00A4               	movwf	(??_printf+1)+0+1
  2523  0072  0824               	movf	1+(??_printf+1)+0,w
  2524  0073  022A               	subwf	(printf@_val+1),w
  2525  0074  1D03               	skipz
  2526  0075  2878               	goto	u268_25
  2527  0076  0823               	movf	0+(??_printf+1)+0,w
  2528  0077  0229               	subwf	(printf@_val),w
  2529  0078                     u268_25:
  2530  0078  1803               	skipnc
  2531  0079  287B               	goto	u268_21
  2532  007A  287C               	goto	u268_20
  2533  007B                     u268_21:
  2534  007B  287E               	goto	i1l3587
  2535  007C                     u268_20:
  2536  007C  2889               	goto	i1l3591
  2537                           	line	1302
  2538                           	
  2539  007D                     i1l3585:	
  2540  007D  2889               	goto	i1l3591
  2541                           	
  2542  007E                     i1l1012:	
  2543                           	line	1300
  2544                           	
  2545  007E                     i1l3587:	
  2546  007E  3001               	movlw	(01h)
  2547  007F  00A2               	movwf	(??_printf+0)+0
  2548  0080  0822               	movf	(??_printf+0)+0,w
  2549  0081  07AD               	addwf	(printf@c),f
  2550                           	
  2551  0082                     i1l3589:	
  2552  0082  082D               	movf	(printf@c),w
  2553  0083  3A05               	xorlw	05h
  2554  0084  1D03               	skipz
  2555  0085  2887               	goto	u269_21
  2556  0086  2888               	goto	u269_20
  2557  0087                     u269_21:
  2558  0087  2865               	goto	i1l3583
  2559  0088                     u269_20:
  2560  0088  2889               	goto	i1l3591
  2561                           	
  2562  0089                     i1l1011:	
  2563                           	line	1433
  2564                           	
  2565  0089                     i1l3591:	
  2566  0089  0826               	movf	(printf@flag),w
  2567  008A  3903               	andlw	03h
  2568  008B  1903               	btfsc	status,2
  2569  008C  288E               	goto	u270_21
  2570  008D  288F               	goto	u270_20
  2571  008E                     u270_21:
  2572  008E  2894               	goto	i1l3595
  2573  008F                     u270_20:
  2574                           	line	1434
  2575                           	
  2576  008F                     i1l3593:	
  2577  008F  302D               	movlw	(02Dh)
  2578  0090  118A  2419  118A   	fcall	_putch
  2579  0093  2894               	goto	i1l3595
  2580                           	
  2581  0094                     i1l1013:	
  2582                           	line	1467
  2583                           	
  2584  0094                     i1l3595:	
  2585  0094  1283               	bcf	status, 5	;RP0=0, select bank0
  2586  0095  1303               	bcf	status, 6	;RP1=0, select bank0
  2587  0096  082D               	movf	(printf@c),w
  2588  0097  00A2               	movwf	(??_printf+0)+0
  2589  0098  0822               	movf	(??_printf+0)+0,w
  2590  0099  00A8               	movwf	(printf@prec)
  2591                           	line	1469
  2592  009A  28CA               	goto	i1l3599
  2593                           	
  2594  009B                     i1l1015:	
  2595                           	line	1484
  2596                           	
  2597  009B                     i1l3597:	
  2598  009B  300A               	movlw	low(0Ah)
  2599  009C  00F8               	movwf	(?___lwmod)
  2600  009D  3000               	movlw	high(0Ah)
  2601  009E  00F9               	movwf	((?___lwmod))+1
  2602  009F  0828               	movf	(printf@prec),w
  2603  00A0  00A2               	movwf	(??_printf+0)+0
  2604  00A1  0722               	addwf	(??_printf+0)+0,w
  2605  00A2  3E01               	addlw	low((_dpowers-__stringbase))
  2606  00A3  0084               	movwf	fsr0
  2607  00A4  118A  239C  118A   	fcall	stringdir
  2608  00A7  00F0               	movwf	(?___lwdiv)
  2609  00A8  118A  239C  118A   	fcall	stringdir
  2610  00AB  00F1               	movwf	(?___lwdiv+1)
  2611  00AC  082A               	movf	(printf@_val+1),w
  2612  00AD  01F3               	clrf	1+(?___lwdiv)+02h
  2613  00AE  07F3               	addwf	1+(?___lwdiv)+02h
  2614  00AF  0829               	movf	(printf@_val),w
  2615  00B0  01F2               	clrf	0+(?___lwdiv)+02h
  2616  00B1  07F2               	addwf	0+(?___lwdiv)+02h
  2617                           
  2618  00B2  118A  220A  118A   	fcall	___lwdiv
  2619  00B5  0871               	movf	(1+(?___lwdiv)),w
  2620  00B6  01FB               	clrf	1+(?___lwmod)+02h
  2621  00B7  07FB               	addwf	1+(?___lwmod)+02h
  2622  00B8  0870               	movf	(0+(?___lwdiv)),w
  2623  00B9  01FA               	clrf	0+(?___lwmod)+02h
  2624  00BA  07FA               	addwf	0+(?___lwmod)+02h
  2625                           
  2626  00BB  118A  22A2  118A   	fcall	___lwmod
  2627  00BE  0878               	movf	(0+(?___lwmod)),w
  2628  00BF  3E30               	addlw	030h
  2629  00C0  1283               	bcf	status, 5	;RP0=0, select bank0
  2630  00C1  1303               	bcf	status, 6	;RP1=0, select bank0
  2631  00C2  00A3               	movwf	(??_printf+1)+0
  2632  00C3  0823               	movf	(??_printf+1)+0,w
  2633  00C4  00AD               	movwf	(printf@c)
  2634                           	line	1516
  2635  00C5  082D               	movf	(printf@c),w
  2636  00C6  118A  2419  118A   	fcall	_putch
  2637  00C9  28CA               	goto	i1l3599
  2638                           	line	1517
  2639                           	
  2640  00CA                     i1l1014:	
  2641                           	line	1469
  2642                           	
  2643  00CA                     i1l3599:	
  2644  00CA  30FF               	movlw	(-1)
  2645  00CB  1283               	bcf	status, 5	;RP0=0, select bank0
  2646  00CC  1303               	bcf	status, 6	;RP1=0, select bank0
  2647  00CD  00A2               	movwf	(??_printf+0)+0
  2648  00CE  0822               	movf	(??_printf+0)+0,w
  2649  00CF  07A8               	addwf	(printf@prec),f
  2650  00D0  0828               	movf	((printf@prec)),w
  2651  00D1  3AFF               	xorlw	-1
  2652  00D2  1D03               	skipz
  2653  00D3  28D5               	goto	u271_21
  2654  00D4  28D6               	goto	u271_20
  2655  00D5                     u271_21:
  2656  00D5  289B               	goto	i1l3597
  2657  00D6                     u271_20:
  2658  00D6  28D8               	goto	i1l3601
  2659                           	
  2660  00D7                     i1l1016:	
  2661  00D7  28D8               	goto	i1l3601
  2662                           	line	1525
  2663                           	
  2664  00D8                     i1l999:	
  2665                           	line	540
  2666                           	
  2667  00D8                     i1l3601:	
  2668  00D8  3001               	movlw	01h
  2669  00D9  1283               	bcf	status, 5	;RP0=0, select bank0
  2670  00DA  1303               	bcf	status, 6	;RP1=0, select bank0
  2671  00DB  07A7               	addwf	(printf@f),f
  2672  00DC  30FF               	movlw	-01h
  2673  00DD  0727               	addwf	(printf@f),w
  2674  00DE  0084               	movwf	fsr0
  2675  00DF  118A  239C  118A   	fcall	stringdir
  2676  00E2  00A2               	movwf	(??_printf+0)+0
  2677  00E3  0822               	movf	(??_printf+0)+0,w
  2678  00E4  00AD               	movwf	(printf@c)
  2679  00E5  08AD               	movf	((printf@c)),f
  2680  00E6  1D03               	skipz
  2681  00E7  28E9               	goto	u272_21
  2682  00E8  28EA               	goto	u272_20
  2683  00E9                     u272_21:
  2684  00E9  281B               	goto	i1l3559
  2685  00EA                     u272_20:
  2686  00EA  28EC               	goto	i1l1018
  2687                           	
  2688  00EB                     i1l1017:	
  2689  00EB  28EC               	goto	i1l1018
  2690                           	line	1527
  2691                           	
  2692  00EC                     i1l1004:	
  2693                           	line	1533
  2694                           ;	Return value of _printf is never used
  2695                           	
  2696  00EC                     i1l1018:	
  2697  00EC  0008               	return
  2698                           	opt stack 0
  2699                           GLOBAL	__end_of_printf
  2700  00ED                     	__end_of_printf:
  2701 ;; =============== function _printf ends ============
  2702                           
  2703                           	signat	_printf,602
  2704                           	global	_putch
  2705                           psect	text516,local,class=CODE,delta=2
  2706                           global __ptext516
  2707  0419                     __ptext516:
  2708                           
  2709 ;; *************** function _putch *****************
  2710 ;; Defined at:
  2711 ;;		line 107 in file "D:\Dropbox\TC - 2015\Pesquisas\PIC\8 - Dispositivo 1\LCD_Claudio.c"
  2712 ;; Parameters:    Size  Location     Type
  2713 ;;  c               1    wreg     unsigned char 
  2714 ;; Auto vars:     Size  Location     Type
  2715 ;;  c               1    6[COMMON] unsigned char 
  2716 ;; Return value:  Size  Location     Type
  2717 ;;		None               void
  2718 ;; Registers used:
  2719 ;;		wreg, fsr0l, fsr0h, status,2, status,0, pclath, cstack
  2720 ;; Tracked objects:
  2721 ;;		On entry : 0/0
  2722 ;;		On exit  : 0/0
  2723 ;;		Unchanged: 0/0
  2724 ;; Data sizes:     COMMON   BANK0   BANK1   BANK2
  2725 ;;      Params:         0       0       0       0
  2726 ;;      Locals:         1       0       0       0
  2727 ;;      Temps:          0       0       0       0
  2728 ;;      Totals:         1       0       0       0
  2729 ;;Total ram usage:        1 bytes
  2730 ;; Hardware stack levels used:    1
  2731 ;; Hardware stack levels required when called:    4
  2732 ;; This function calls:
  2733 ;;		_lcd_putc
  2734 ;; This function is called by:
  2735 ;;		_printf
  2736 ;; This function uses a non-reentrant model
  2737 ;;
  2738                           psect	text516
  2739                           	file	"D:\Dropbox\TC - 2015\Pesquisas\PIC\8 - Dispositivo 1\LCD_Claudio.c"
  2740                           	line	107
  2741                           	global	__size_of_putch
  2742  0006                     	__size_of_putch	equ	__end_of_putch-_putch
  2743                           	
  2744  0419                     _putch:	
  2745 ;; hardware stack exceeded
  2746                           	opt	stack 0
  2747                           ; Regs used in _putch: [wreg-fsr0h+status,2+status,0+pclath+cstack]
  2748                           ;putch@c stored from wreg
  2749  0419  00F6               	movwf	(putch@c)
  2750                           	line	108
  2751                           	
  2752  041A                     i1l3493:	
  2753                           ;LCD_Claudio.c: 108: lcd_putc(c);
  2754  041A  0876               	movf	(putch@c),w
  2755  041B  118A  21BA  118A   	fcall	_lcd_putc
  2756                           	line	109
  2757                           	
  2758  041E                     i1l943:	
  2759  041E  0008               	return
  2760                           	opt stack 0
  2761                           GLOBAL	__end_of_putch
  2762  041F                     	__end_of_putch:
  2763 ;; =============== function _putch ends ============
  2764                           
  2765                           	signat	_putch,4216
  2766                           	global	_lcd_putc
  2767                           psect	text517,local,class=CODE,delta=2
  2768                           global __ptext517
  2769  01BA                     __ptext517:
  2770                           
  2771 ;; *************** function _lcd_putc *****************
  2772 ;; Defined at:
  2773 ;;		line 50 in file "D:\Dropbox\TC - 2015\Pesquisas\PIC\8 - Dispositivo 1\LCD_Claudio.c"
  2774 ;; Parameters:    Size  Location     Type
  2775 ;;  c               1    wreg     unsigned char 
  2776 ;; Auto vars:     Size  Location     Type
  2777 ;;  c               1    5[COMMON] unsigned char 
  2778 ;; Return value:  Size  Location     Type
  2779 ;;		None               void
  2780 ;; Registers used:
  2781 ;;		wreg, fsr0l, fsr0h, status,2, status,0, pclath, cstack
  2782 ;; Tracked objects:
  2783 ;;		On entry : 0/0
  2784 ;;		On exit  : 0/0
  2785 ;;		Unchanged: 0/0
  2786 ;; Data sizes:     COMMON   BANK0   BANK1   BANK2
  2787 ;;      Params:         0       0       0       0
  2788 ;;      Locals:         1       0       0       0
  2789 ;;      Temps:          0       0       0       0
  2790 ;;      Totals:         1       0       0       0
  2791 ;;Total ram usage:        1 bytes
  2792 ;; Hardware stack levels used:    1
  2793 ;; Hardware stack levels required when called:    3
  2794 ;; This function calls:
  2795 ;;		i1_Clear
  2796 ;;		_lcd_goto
  2797 ;;		i1_Write
  2798 ;;		_lcd_putc
  2799 ;; This function is called by:
  2800 ;;		_putch
  2801 ;; This function uses a non-reentrant model
  2802 ;;
  2803                           psect	text517
  2804                           	file	"D:\Dropbox\TC - 2015\Pesquisas\PIC\8 - Dispositivo 1\LCD_Claudio.c"
  2805                           	line	50
  2806                           	global	__size_of_lcd_putc
  2807  0050                     	__size_of_lcd_putc	equ	__end_of_lcd_putc-_lcd_putc
  2808                           	
  2809  01BA                     _lcd_putc:	
  2810 ;; hardware stack exceeded
  2811                           	opt	stack 0
  2812                           ; Regs used in _lcd_putc: [wreg-fsr0h+status,2+status,0+pclath+cstack]
  2813                           ;lcd_putc@c stored from wreg
  2814  01BA  00F5               	movwf	(lcd_putc@c)
  2815                           	line	51
  2816                           	
  2817  01BB                     i1l3467:	
  2818                           ;LCD_Claudio.c: 51: switch (c){
  2819  01BB  29F8               	goto	i1l3487
  2820                           	line	52
  2821                           ;LCD_Claudio.c: 52: case '\f':
  2822                           	
  2823  01BC                     i1l927:	
  2824                           	line	53
  2825                           	
  2826  01BC                     i1l3469:	
  2827                           ;LCD_Claudio.c: 53: Clear();
  2828  01BC  118A  23C3  118A   	fcall	i1_Clear
  2829                           	line	54
  2830                           ;LCD_Claudio.c: 54: break;
  2831  01BF  2A09               	goto	i1l934
  2832                           	line	55
  2833                           ;LCD_Claudio.c: 55: case '\n':
  2834                           	
  2835  01C0                     i1l929:	
  2836                           	line	56
  2837                           	
  2838  01C0                     i1l3471:	
  2839                           ;LCD_Claudio.c: 56: lcd_goto(0x40);
  2840  01C0  3040               	movlw	(040h)
  2841  01C1  118A  23FF  118A   	fcall	_lcd_goto
  2842                           	line	57
  2843                           ;LCD_Claudio.c: 57: break;
  2844  01C4  2A09               	goto	i1l934
  2845                           	line	58
  2846                           ;LCD_Claudio.c: 58: case '\r':
  2847                           	
  2848  01C5                     i1l930:	
  2849                           	line	59
  2850                           ;LCD_Claudio.c: 59: RC6 = 0;
  2851  01C5  1283               	bcf	status, 5	;RP0=0, select bank0
  2852  01C6  1303               	bcf	status, 6	;RP1=0, select bank0
  2853  01C7  1307               	bcf	(62/8),(62)&7
  2854                           	line	60
  2855                           	
  2856  01C8                     i1l3473:	
  2857                           ;LCD_Claudio.c: 60: Write(0x80);
  2858  01C8  3080               	movlw	(080h)
  2859  01C9  118A  233E  118A   	fcall	i1_Write
  2860                           	line	61
  2861                           ;LCD_Claudio.c: 61: break;
  2862  01CC  2A09               	goto	i1l934
  2863                           	line	62
  2864                           ;LCD_Claudio.c: 62: case '\b':
  2865                           	
  2866  01CD                     i1l931:	
  2867                           	line	63
  2868                           ;LCD_Claudio.c: 63: RC6=0;
  2869  01CD  1283               	bcf	status, 5	;RP0=0, select bank0
  2870  01CE  1303               	bcf	status, 6	;RP1=0, select bank0
  2871  01CF  1307               	bcf	(62/8),(62)&7
  2872                           	line	64
  2873                           	
  2874  01D0                     i1l3475:	
  2875                           ;LCD_Claudio.c: 64: Write(0b0000010000);
  2876  01D0  3010               	movlw	(010h)
  2877  01D1  118A  233E  118A   	fcall	i1_Write
  2878                           	line	65
  2879                           	
  2880  01D4                     i1l3477:	
  2881                           ;LCD_Claudio.c: 65: RC6=1;
  2882  01D4  1283               	bcf	status, 5	;RP0=0, select bank0
  2883  01D5  1303               	bcf	status, 6	;RP1=0, select bank0
  2884  01D6  1707               	bsf	(62/8),(62)&7
  2885                           	line	66
  2886                           ;LCD_Claudio.c: 66: lcd_putc(32);
  2887  01D7  3020               	movlw	(020h)
  2888  01D8  118A  21BA  118A   	fcall	_lcd_putc
  2889                           	line	67
  2890                           	
  2891  01DB                     i1l3479:	
  2892                           ;LCD_Claudio.c: 67: RC6=0;
  2893  01DB  1283               	bcf	status, 5	;RP0=0, select bank0
  2894  01DC  1303               	bcf	status, 6	;RP1=0, select bank0
  2895  01DD  1307               	bcf	(62/8),(62)&7
  2896                           	line	68
  2897                           ;LCD_Claudio.c: 68: Write(0b0000010000);
  2898  01DE  3010               	movlw	(010h)
  2899  01DF  118A  233E  118A   	fcall	i1_Write
  2900                           	line	69
  2901                           ;LCD_Claudio.c: 69: break;
  2902  01E2  2A09               	goto	i1l934
  2903                           	line	70
  2904                           ;LCD_Claudio.c: 70: case '\t':
  2905                           	
  2906  01E3                     i1l932:	
  2907                           	line	71
  2908                           ;LCD_Claudio.c: 71: RC6=0;
  2909  01E3  1283               	bcf	status, 5	;RP0=0, select bank0
  2910  01E4  1303               	bcf	status, 6	;RP1=0, select bank0
  2911  01E5  1307               	bcf	(62/8),(62)&7
  2912                           	line	72
  2913                           	
  2914  01E6                     i1l3481:	
  2915                           ;LCD_Claudio.c: 72: Write(0b0000010100);
  2916  01E6  3014               	movlw	(014h)
  2917  01E7  118A  233E  118A   	fcall	i1_Write
  2918                           	line	73
  2919                           ;LCD_Claudio.c: 73: Write(0b0000010100);
  2920  01EA  3014               	movlw	(014h)
  2921  01EB  118A  233E  118A   	fcall	i1_Write
  2922                           	line	74
  2923                           ;LCD_Claudio.c: 74: break;
  2924  01EE  2A09               	goto	i1l934
  2925                           	line	75
  2926                           ;LCD_Claudio.c: 75: default:
  2927                           	
  2928  01EF                     i1l933:	
  2929                           	line	76
  2930                           ;LCD_Claudio.c: 76: RC6 = 1;
  2931  01EF  1283               	bcf	status, 5	;RP0=0, select bank0
  2932  01F0  1303               	bcf	status, 6	;RP1=0, select bank0
  2933  01F1  1707               	bsf	(62/8),(62)&7
  2934                           	line	77
  2935                           	
  2936  01F2                     i1l3483:	
  2937                           ;LCD_Claudio.c: 77: Write( c );
  2938  01F2  0875               	movf	(lcd_putc@c),w
  2939  01F3  118A  233E  118A   	fcall	i1_Write
  2940                           	line	78
  2941                           ;LCD_Claudio.c: 78: break;
  2942  01F6  2A09               	goto	i1l934
  2943                           	line	79
  2944                           	
  2945  01F7                     i1l3485:	
  2946                           ;LCD_Claudio.c: 79: }
  2947  01F7  2A09               	goto	i1l934
  2948                           	line	51
  2949                           	
  2950  01F8                     i1l926:	
  2951                           	
  2952  01F8                     i1l3487:	
  2953  01F8  0875               	movf	(lcd_putc@c),w
  2954                           	; Switch size 1, requested type "space"
  2955                           ; Number of cases is 5, Range of values is 8 to 13
  2956                           ; switch strategies available:
  2957                           ; Name         Instructions Cycles
  2958                           ; simple_byte           16     9 (average)
  2959                           ; direct_byte           22    10 (fixed)
  2960                           ; jumptable            263     9 (fixed)
  2961                           ;	Chosen strategy is simple_byte
  2962                           
  2963                           	opt asmopt_off
  2964  01F9  3A08               	xorlw	8^0	; case 8
  2965  01FA  1903               	skipnz
  2966  01FB  29CD               	goto	i1l931
  2967  01FC  3A01               	xorlw	9^8	; case 9
  2968  01FD  1903               	skipnz
  2969  01FE  29E3               	goto	i1l932
  2970  01FF  3A03               	xorlw	10^9	; case 10
  2971  0200  1903               	skipnz
  2972  0201  29C0               	goto	i1l3471
  2973  0202  3A06               	xorlw	12^10	; case 12
  2974  0203  1903               	skipnz
  2975  0204  29BC               	goto	i1l3469
  2976  0205  3A01               	xorlw	13^12	; case 13
  2977  0206  1903               	skipnz
  2978  0207  29C5               	goto	i1l930
  2979  0208  29EF               	goto	i1l933
  2980                           	opt asmopt_on
  2981                           
  2982                           	line	79
  2983                           	
  2984  0209                     i1l928:	
  2985                           	line	80
  2986                           	
  2987  0209                     i1l934:	
  2988  0209  0008               	return
  2989                           	opt stack 0
  2990                           GLOBAL	__end_of_lcd_putc
  2991  020A                     	__end_of_lcd_putc:
  2992 ;; =============== function _lcd_putc ends ============
  2993                           
  2994                           	signat	_lcd_putc,4216
  2995                           	global	i1_Clear
  2996                           psect	text518,local,class=CODE,delta=2
  2997                           global __ptext518
  2998  03C3                     __ptext518:
  2999                           
  3000 ;; *************** function i1_Clear *****************
  3001 ;; Defined at:
  3002 ;;		line 38 in file "D:\Dropbox\TC - 2015\Pesquisas\PIC\8 - Dispositivo 1\LCD_Claudio.c"
  3003 ;; Parameters:    Size  Location     Type
  3004 ;;		None
  3005 ;; Auto vars:     Size  Location     Type
  3006 ;;		None
  3007 ;; Return value:  Size  Location     Type
  3008 ;;		None               void
  3009 ;; Registers used:
  3010 ;;		wreg, status,2, status,0, pclath, cstack
  3011 ;; Tracked objects:
  3012 ;;		On entry : 0/0
  3013 ;;		On exit  : 0/0
  3014 ;;		Unchanged: 0/0
  3015 ;; Data sizes:     COMMON   BANK0   BANK1   BANK2
  3016 ;;      Params:         0       0       0       0
  3017 ;;      Locals:         0       0       0       0
  3018 ;;      Temps:          2       0       0       0
  3019 ;;      Totals:         2       0       0       0
  3020 ;;Total ram usage:        2 bytes
  3021 ;; Hardware stack levels used:    1
  3022 ;; Hardware stack levels required when called:    2
  3023 ;; This function calls:
  3024 ;;		i1_Write
  3025 ;; This function is called by:
  3026 ;;		_lcd_putc
  3027 ;; This function uses a non-reentrant model
  3028 ;;
  3029                           psect	text518
  3030                           	file	"D:\Dropbox\TC - 2015\Pesquisas\PIC\8 - Dispositivo 1\LCD_Claudio.c"
  3031                           	line	38
  3032                           	global	__size_ofi1_Clear
  3033  0011                     	__size_ofi1_Clear	equ	__end_ofi1_Clear-i1_Clear
  3034                           	
  3035  03C3                     i1_Clear:	
  3036 ;; hardware stack exceeded
  3037                           	opt	stack 0
  3038                           ; Regs used in i1_Clear: [wreg+status,2+status,0+pclath+cstack]
  3039                           	line	39
  3040                           	
  3041  03C3                     i1l3703:	
  3042                           ;LCD_Claudio.c: 39: RC6 = 0;
  3043  03C3  1283               	bcf	status, 5	;RP0=0, select bank0
  3044  03C4  1303               	bcf	status, 6	;RP1=0, select bank0
  3045  03C5  1307               	bcf	(62/8),(62)&7
  3046                           	line	40
  3047                           	
  3048  03C6                     i1l3705:	
  3049                           ;LCD_Claudio.c: 40: Write(0x01);
  3050  03C6  3001               	movlw	(01h)
  3051  03C7  118A  233E  118A   	fcall	i1_Write
  3052                           	line	41
  3053                           	
  3054  03CA                     i1l3707:	
  3055                           ;LCD_Claudio.c: 41: _delay((unsigned long)((2)*(4000000/4000.0)));
  3056                           	opt asmopt_off
  3057  03CA  3003               movlw	3
  3058  03CB  00F4               movwf	((??i1_Clear+0)+0+1),f
  3059  03CC  3097               	movlw	151
  3060  03CD  00F3               movwf	((??i1_Clear+0)+0),f
  3061  03CE                     u299_27:
  3062  03CE  0BF3               	decfsz	((??i1_Clear+0)+0),f
  3063  03CF  2BCE               	goto	u299_27
  3064  03D0  0BF4               	decfsz	((??i1_Clear+0)+0+1),f
  3065  03D1  2BCE               	goto	u299_27
  3066  03D2  2BD3               	nop2
  3067                           opt asmopt_on
  3068                           
  3069                           	line	42
  3070                           	
  3071  03D3                     i1l917:	
  3072  03D3  0008               	return
  3073                           	opt stack 0
  3074                           GLOBAL	__end_ofi1_Clear
  3075  03D4                     	__end_ofi1_Clear:
  3076 ;; =============== function i1_Clear ends ============
  3077                           
  3078                           	signat	i1_Clear,88
  3079                           	global	_lcd_goto
  3080                           psect	text519,local,class=CODE,delta=2
  3081                           global __ptext519
  3082  03FF                     __ptext519:
  3083                           
  3084 ;; *************** function _lcd_goto *****************
  3085 ;; Defined at:
  3086 ;;		line 82 in file "D:\Dropbox\TC - 2015\Pesquisas\PIC\8 - Dispositivo 1\LCD_Claudio.c"
  3087 ;; Parameters:    Size  Location     Type
  3088 ;;  pos             1    wreg     unsigned char 
  3089 ;; Auto vars:     Size  Location     Type
  3090 ;;  pos             1    3[COMMON] unsigned char 
  3091 ;; Return value:  Size  Location     Type
  3092 ;;		None               void
  3093 ;; Registers used:
  3094 ;;		wreg, status,2, status,0, pclath, cstack
  3095 ;; Tracked objects:
  3096 ;;		On entry : 0/0
  3097 ;;		On exit  : 0/0
  3098 ;;		Unchanged: 0/0
  3099 ;; Data sizes:     COMMON   BANK0   BANK1   BANK2
  3100 ;;      Params:         0       0       0       0
  3101 ;;      Locals:         1       0       0       0
  3102 ;;      Temps:          0       0       0       0
  3103 ;;      Totals:         1       0       0       0
  3104 ;;Total ram usage:        1 bytes
  3105 ;; Hardware stack levels used:    1
  3106 ;; Hardware stack levels required when called:    2
  3107 ;; This function calls:
  3108 ;;		i1_Write
  3109 ;; This function is called by:
  3110 ;;		_lcd_putc
  3111 ;; This function uses a non-reentrant model
  3112 ;;
  3113                           psect	text519
  3114                           	file	"D:\Dropbox\TC - 2015\Pesquisas\PIC\8 - Dispositivo 1\LCD_Claudio.c"
  3115                           	line	82
  3116                           	global	__size_of_lcd_goto
  3117  000A                     	__size_of_lcd_goto	equ	__end_of_lcd_goto-_lcd_goto
  3118                           	
  3119  03FF                     _lcd_goto:	
  3120 ;; hardware stack exceeded
  3121                           	opt	stack 0
  3122                           ; Regs used in _lcd_goto: [wreg+status,2+status,0+pclath+cstack]
  3123                           ;lcd_goto@pos stored from wreg
  3124  03FF  00F3               	movwf	(lcd_goto@pos)
  3125                           	line	83
  3126                           	
  3127  0400                     i1l3489:	
  3128                           ;LCD_Claudio.c: 83: RC6 = 0;
  3129  0400  1283               	bcf	status, 5	;RP0=0, select bank0
  3130  0401  1303               	bcf	status, 6	;RP1=0, select bank0
  3131  0402  1307               	bcf	(62/8),(62)&7
  3132                           	line	84
  3133                           	
  3134  0403                     i1l3491:	
  3135                           ;LCD_Claudio.c: 84: Write(0x80+pos);
  3136  0403  0873               	movf	(lcd_goto@pos),w
  3137  0404  3E80               	addlw	080h
  3138  0405  118A  233E  118A   	fcall	i1_Write
  3139                           	line	85
  3140                           	
  3141  0408                     i1l937:	
  3142  0408  0008               	return
  3143                           	opt stack 0
  3144                           GLOBAL	__end_of_lcd_goto
  3145  0409                     	__end_of_lcd_goto:
  3146 ;; =============== function _lcd_goto ends ============
  3147                           
  3148                           	signat	_lcd_goto,4216
  3149                           	global	i1_Write
  3150                           psect	text520,local,class=CODE,delta=2
  3151                           global __ptext520
  3152  033E                     __ptext520:
  3153                           
  3154 ;; *************** function i1_Write *****************
  3155 ;; Defined at:
  3156 ;;		line 28 in file "D:\Dropbox\TC - 2015\Pesquisas\PIC\8 - Dispositivo 1\LCD_Claudio.c"
  3157 ;; Parameters:    Size  Location     Type
  3158 ;;  Write           1    wreg     unsigned char 
  3159 ;; Auto vars:     Size  Location     Type
  3160 ;;  Write           1    2[COMMON] unsigned char 
  3161 ;; Return value:  Size  Location     Type
  3162 ;;		None               void
  3163 ;; Registers used:
  3164 ;;		wreg, status,2, status,0, pclath, cstack
  3165 ;; Tracked objects:
  3166 ;;		On entry : 0/0
  3167 ;;		On exit  : 0/0
  3168 ;;		Unchanged: 0/0
  3169 ;; Data sizes:     COMMON   BANK0   BANK1   BANK2
  3170 ;;      Params:         0       0       0       0
  3171 ;;      Locals:         1       0       0       0
  3172 ;;      Temps:          2       0       0       0
  3173 ;;      Totals:         3       0       0       0
  3174 ;;Total ram usage:        3 bytes
  3175 ;; Hardware stack levels used:    1
  3176 ;; Hardware stack levels required when called:    1
  3177 ;; This function calls:
  3178 ;;		i1_Enable
  3179 ;; This function is called by:
  3180 ;;		_lcd_putc
  3181 ;;		_lcd_goto
  3182 ;;		i1_Clear
  3183 ;; This function uses a non-reentrant model
  3184 ;;
  3185                           psect	text520
  3186                           	file	"D:\Dropbox\TC - 2015\Pesquisas\PIC\8 - Dispositivo 1\LCD_Claudio.c"
  3187                           	line	28
  3188                           	global	__size_ofi1_Write
  3189  0029                     	__size_ofi1_Write	equ	__end_ofi1_Write-i1_Write
  3190                           	
  3191  033E                     i1_Write:	
  3192 ;; hardware stack exceeded
  3193                           	opt	stack 0
  3194                           ; Regs used in i1_Write: [wreg+status,2+status,0+pclath+cstack]
  3195                           ;i1Write@c stored from wreg
  3196  033E  00F2               	movwf	(i1Write@c)
  3197                           	line	29
  3198                           	
  3199  033F                     i1l3691:	
  3200                           ;LCD_Claudio.c: 29: PORTC&=0XF0;
  3201  033F  30F0               	movlw	(0F0h)
  3202  0340  00F0               	movwf	(??i1_Write+0)+0
  3203  0341  0870               	movf	(??i1_Write+0)+0,w
  3204  0342  1283               	bcf	status, 5	;RP0=0, select bank0
  3205  0343  1303               	bcf	status, 6	;RP1=0, select bank0
  3206  0344  0587               	andwf	(7),f	;volatile
  3207                           	line	30
  3208                           ;LCD_Claudio.c: 30: PORTC|=c >> 4;
  3209  0345  0872               	movf	(i1Write@c),w
  3210  0346  00F0               	movwf	(??i1_Write+0)+0
  3211  0347  3004               	movlw	04h
  3212  0348                     u286_25:
  3213  0348  1003               	clrc
  3214  0349  0CF0               	rrf	(??i1_Write+0)+0,f
  3215  034A  3EFF               	addlw	-1
  3216  034B  1D03               	skipz
  3217  034C  2B48               	goto	u286_25
  3218  034D  0870               	movf	0+(??i1_Write+0)+0,w
  3219  034E  00F1               	movwf	(??i1_Write+1)+0
  3220  034F  0871               	movf	(??i1_Write+1)+0,w
  3221  0350  0487               	iorwf	(7),f	;volatile
  3222                           	line	31
  3223                           	
  3224  0351                     i1l3693:	
  3225                           ;LCD_Claudio.c: 31: Enable();
  3226  0351  118A  2411  118A   	fcall	i1_Enable
  3227                           	line	32
  3228                           	
  3229  0354                     i1l3695:	
  3230                           ;LCD_Claudio.c: 32: PORTC&=0XF0;
  3231  0354  30F0               	movlw	(0F0h)
  3232  0355  00F0               	movwf	(??i1_Write+0)+0
  3233  0356  0870               	movf	(??i1_Write+0)+0,w
  3234  0357  1283               	bcf	status, 5	;RP0=0, select bank0
  3235  0358  1303               	bcf	status, 6	;RP1=0, select bank0
  3236  0359  0587               	andwf	(7),f	;volatile
  3237                           	line	33
  3238                           	
  3239  035A                     i1l3697:	
  3240                           ;LCD_Claudio.c: 33: PORTC|=(c & 0X0F);
  3241  035A  0872               	movf	(i1Write@c),w
  3242  035B  390F               	andlw	0Fh
  3243  035C  00F0               	movwf	(??i1_Write+0)+0
  3244  035D  0870               	movf	(??i1_Write+0)+0,w
  3245  035E  0487               	iorwf	(7),f	;volatile
  3246                           	line	34
  3247                           	
  3248  035F                     i1l3699:	
  3249                           ;LCD_Claudio.c: 34: Enable();
  3250  035F  118A  2411  118A   	fcall	i1_Enable
  3251                           	line	35
  3252                           	
  3253  0362                     i1l3701:	
  3254                           ;LCD_Claudio.c: 35: _delay((unsigned long)((40)*(4000000/4000000.0)));
  3255                           	opt asmopt_off
  3256  0362  300D               movlw	13
  3257  0363  00F0               movwf	(??i1_Write+0)+0,f
  3258  0364                     u300_27:
  3259  0364  0BF0               decfsz	(??i1_Write+0)+0,f
  3260  0365  2B64               	goto	u300_27
  3261                           opt asmopt_on
  3262                           
  3263                           	line	36
  3264                           	
  3265  0366                     i1l914:	
  3266  0366  0008               	return
  3267                           	opt stack 0
  3268                           GLOBAL	__end_ofi1_Write
  3269  0367                     	__end_ofi1_Write:
  3270 ;; =============== function i1_Write ends ============
  3271                           
  3272                           	signat	i1_Write,88
  3273                           	global	i1_Enable
  3274                           psect	text521,local,class=CODE,delta=2
  3275                           global __ptext521
  3276  0411                     __ptext521:
  3277                           
  3278 ;; *************** function i1_Enable *****************
  3279 ;; Defined at:
  3280 ;;		line 22 in file "D:\Dropbox\TC - 2015\Pesquisas\PIC\8 - Dispositivo 1\LCD_Claudio.c"
  3281 ;; Parameters:    Size  Location     Type
  3282 ;;		None
  3283 ;; Auto vars:     Size  Location     Type
  3284 ;;		None
  3285 ;; Return value:  Size  Location     Type
  3286 ;;		None               void
  3287 ;; Registers used:
  3288 ;;		None
  3289 ;; Tracked objects:
  3290 ;;		On entry : 0/0
  3291 ;;		On exit  : 0/0
  3292 ;;		Unchanged: 0/0
  3293 ;; Data sizes:     COMMON   BANK0   BANK1   BANK2
  3294 ;;      Params:         0       0       0       0
  3295 ;;      Locals:         0       0       0       0
  3296 ;;      Temps:          0       0       0       0
  3297 ;;      Totals:         0       0       0       0
  3298 ;;Total ram usage:        0 bytes
  3299 ;; Hardware stack levels used:    1
  3300 ;; This function calls:
  3301 ;;		Nothing
  3302 ;; This function is called by:
  3303 ;;		i1_Write
  3304 ;; This function uses a non-reentrant model
  3305 ;;
  3306                           psect	text521
  3307                           	file	"D:\Dropbox\TC - 2015\Pesquisas\PIC\8 - Dispositivo 1\LCD_Claudio.c"
  3308                           	line	22
  3309                           	global	__size_ofi1_Enable
  3310  0008                     	__size_ofi1_Enable	equ	__end_ofi1_Enable-i1_Enable
  3311                           	
  3312  0411                     i1_Enable:	
  3313 ;; hardware stack exceeded
  3314                           	opt	stack 0
  3315                           ; Regs used in i1_Enable: []
  3316                           	line	23
  3317                           	
  3318  0411                     i1l3689:	
  3319                           ;LCD_Claudio.c: 23: RC7=1;
  3320  0411  1283               	bcf	status, 5	;RP0=0, select bank0
  3321  0412  1303               	bcf	status, 6	;RP1=0, select bank0
  3322  0413  1787               	bsf	(63/8),(63)&7
  3323                           	line	24
  3324                           ;LCD_Claudio.c: 24: _delay((unsigned long)((2)*(4000000/4000000.0)));
  3325                           		opt asmopt_off
  3326  0414  2C15               	nop2	;2 cycle nop
  3327                           	opt asmopt_on
  3328                           
  3329                           	line	25
  3330                           ;LCD_Claudio.c: 25: RC7=0;
  3331  0415  1283               	bcf	status, 5	;RP0=0, select bank0
  3332  0416  1303               	bcf	status, 6	;RP1=0, select bank0
  3333  0417  1387               	bcf	(63/8),(63)&7
  3334                           	line	26
  3335                           	
  3336  0418                     i1l911:	
  3337  0418  0008               	return
  3338                           	opt stack 0
  3339                           GLOBAL	__end_ofi1_Enable
  3340  0419                     	__end_ofi1_Enable:
  3341 ;; =============== function i1_Enable ends ============
  3342                           
  3343                           	signat	i1_Enable,88
  3344                           	global	___lwmod
  3345                           psect	text522,local,class=CODE,delta=2
  3346                           global __ptext522
  3347  02A2                     __ptext522:
  3348                           
  3349 ;; *************** function ___lwmod *****************
  3350 ;; Defined at:
  3351 ;;		line 5 in file "C:\Program Files (x86)\HI-TECH Software\PICC\9.83\sources\lwmod.c"
  3352 ;; Parameters:    Size  Location     Type
  3353 ;;  divisor         2    8[COMMON] unsigned int 
  3354 ;;  dividend        2   10[COMMON] unsigned int 
  3355 ;; Auto vars:     Size  Location     Type
  3356 ;;  counter         1   13[COMMON] unsigned char 
  3357 ;; Return value:  Size  Location     Type
  3358 ;;                  2    8[COMMON] unsigned int 
  3359 ;; Registers used:
  3360 ;;		wreg, status,2, status,0
  3361 ;; Tracked objects:
  3362 ;;		On entry : 0/0
  3363 ;;		On exit  : 0/0
  3364 ;;		Unchanged: 0/0
  3365 ;; Data sizes:     COMMON   BANK0   BANK1   BANK2
  3366 ;;      Params:         4       0       0       0
  3367 ;;      Locals:         1       0       0       0
  3368 ;;      Temps:          1       0       0       0
  3369 ;;      Totals:         6       0       0       0
  3370 ;;Total ram usage:        6 bytes
  3371 ;; Hardware stack levels used:    1
  3372 ;; This function calls:
  3373 ;;		Nothing
  3374 ;; This function is called by:
  3375 ;;		_printf
  3376 ;; This function uses a non-reentrant model
  3377 ;;
  3378                           psect	text522
  3379                           	file	"C:\Program Files (x86)\HI-TECH Software\PICC\9.83\sources\lwmod.c"
  3380                           	line	5
  3381                           	global	__size_of___lwmod
  3382  0044                     	__size_of___lwmod	equ	__end_of___lwmod-___lwmod
  3383                           	
  3384  02A2                     ___lwmod:	
  3385                           	opt	stack 1
  3386                           ; Regs used in ___lwmod: [wreg+status,2+status,0]
  3387                           	line	8
  3388                           	
  3389  02A2                     i1l3667:	
  3390  02A2  0879               	movf	(___lwmod@divisor+1),w
  3391  02A3  0478               	iorwf	(___lwmod@divisor),w
  3392  02A4  1903               	skipnz
  3393  02A5  2AA7               	goto	u280_21
  3394  02A6  2AA8               	goto	u280_20
  3395  02A7                     u280_21:
  3396  02A7  2ADE               	goto	i1l3685
  3397  02A8                     u280_20:
  3398                           	line	9
  3399                           	
  3400  02A8                     i1l3669:	
  3401  02A8  01FD               	clrf	(___lwmod@counter)
  3402  02A9  1403               	bsf	status,0
  3403  02AA  0DFD               	rlf	(___lwmod@counter),f
  3404                           	line	10
  3405  02AB  2AB8               	goto	i1l3675
  3406                           	
  3407  02AC                     i1l1895:	
  3408                           	line	11
  3409                           	
  3410  02AC                     i1l3671:	
  3411  02AC  3001               	movlw	01h
  3412                           	
  3413  02AD                     u281_25:
  3414  02AD  1003               	clrc
  3415  02AE  0DF8               	rlf	(___lwmod@divisor),f
  3416  02AF  0DF9               	rlf	(___lwmod@divisor+1),f
  3417  02B0  3EFF               	addlw	-1
  3418  02B1  1D03               	skipz
  3419  02B2  2AAD               	goto	u281_25
  3420                           	line	12
  3421                           	
  3422  02B3                     i1l3673:	
  3423  02B3  3001               	movlw	(01h)
  3424  02B4  00FC               	movwf	(??___lwmod+0)+0
  3425  02B5  087C               	movf	(??___lwmod+0)+0,w
  3426  02B6  07FD               	addwf	(___lwmod@counter),f
  3427  02B7  2AB8               	goto	i1l3675
  3428                           	line	13
  3429                           	
  3430  02B8                     i1l1894:	
  3431                           	line	10
  3432                           	
  3433  02B8                     i1l3675:	
  3434  02B8  1FF9               	btfss	(___lwmod@divisor+1),(15)&7
  3435  02B9  2ABB               	goto	u282_21
  3436  02BA  2ABC               	goto	u282_20
  3437  02BB                     u282_21:
  3438  02BB  2AAC               	goto	i1l3671
  3439  02BC                     u282_20:
  3440  02BC  2ABE               	goto	i1l3677
  3441                           	
  3442  02BD                     i1l1896:	
  3443  02BD  2ABE               	goto	i1l3677
  3444                           	line	14
  3445                           	
  3446  02BE                     i1l1897:	
  3447                           	line	15
  3448                           	
  3449  02BE                     i1l3677:	
  3450  02BE  0879               	movf	(___lwmod@divisor+1),w
  3451  02BF  027B               	subwf	(___lwmod@dividend+1),w
  3452  02C0  1D03               	skipz
  3453  02C1  2AC4               	goto	u283_25
  3454  02C2  0878               	movf	(___lwmod@divisor),w
  3455  02C3  027A               	subwf	(___lwmod@dividend),w
  3456  02C4                     u283_25:
  3457  02C4  1C03               	skipc
  3458  02C5  2AC7               	goto	u283_21
  3459  02C6  2AC8               	goto	u283_20
  3460  02C7                     u283_21:
  3461  02C7  2ACF               	goto	i1l3681
  3462  02C8                     u283_20:
  3463                           	line	16
  3464                           	
  3465  02C8                     i1l3679:	
  3466  02C8  0878               	movf	(___lwmod@divisor),w
  3467  02C9  02FA               	subwf	(___lwmod@dividend),f
  3468  02CA  0879               	movf	(___lwmod@divisor+1),w
  3469  02CB  1C03               	skipc
  3470  02CC  03FB               	decf	(___lwmod@dividend+1),f
  3471  02CD  02FB               	subwf	(___lwmod@dividend+1),f
  3472  02CE  2ACF               	goto	i1l3681
  3473                           	
  3474  02CF                     i1l1898:	
  3475                           	line	17
  3476                           	
  3477  02CF                     i1l3681:	
  3478  02CF  3001               	movlw	01h
  3479                           	
  3480  02D0                     u284_25:
  3481  02D0  1003               	clrc
  3482  02D1  0CF9               	rrf	(___lwmod@divisor+1),f
  3483  02D2  0CF8               	rrf	(___lwmod@divisor),f
  3484  02D3  3EFF               	addlw	-1
  3485  02D4  1D03               	skipz
  3486  02D5  2AD0               	goto	u284_25
  3487                           	line	18
  3488                           	
  3489  02D6                     i1l3683:	
  3490  02D6  3001               	movlw	low(01h)
  3491  02D7  02FD               	subwf	(___lwmod@counter),f
  3492  02D8  1D03               	btfss	status,2
  3493  02D9  2ADB               	goto	u285_21
  3494  02DA  2ADC               	goto	u285_20
  3495  02DB                     u285_21:
  3496  02DB  2ABE               	goto	i1l3677
  3497  02DC                     u285_20:
  3498  02DC  2ADE               	goto	i1l3685
  3499                           	
  3500  02DD                     i1l1899:	
  3501  02DD  2ADE               	goto	i1l3685
  3502                           	line	19
  3503                           	
  3504  02DE                     i1l1893:	
  3505                           	line	20
  3506                           	
  3507  02DE                     i1l3685:	
  3508  02DE  087B               	movf	(___lwmod@dividend+1),w
  3509  02DF  01F9               	clrf	(?___lwmod+1)
  3510  02E0  07F9               	addwf	(?___lwmod+1)
  3511  02E1  087A               	movf	(___lwmod@dividend),w
  3512  02E2  01F8               	clrf	(?___lwmod)
  3513  02E3  07F8               	addwf	(?___lwmod)
  3514                           
  3515  02E4  2AE5               	goto	i1l1900
  3516                           	
  3517  02E5                     i1l3687:	
  3518                           	line	21
  3519                           	
  3520  02E5                     i1l1900:	
  3521  02E5  0008               	return
  3522                           	opt stack 0
  3523                           GLOBAL	__end_of___lwmod
  3524  02E6                     	__end_of___lwmod:
  3525 ;; =============== function ___lwmod ends ============
  3526                           
  3527                           	signat	___lwmod,8314
  3528                           	global	___lwdiv
  3529                           psect	text523,local,class=CODE,delta=2
  3530                           global __ptext523
  3531  020A                     __ptext523:
  3532                           
  3533 ;; *************** function ___lwdiv *****************
  3534 ;; Defined at:
  3535 ;;		line 5 in file "C:\Program Files (x86)\HI-TECH Software\PICC\9.83\sources\lwdiv.c"
  3536 ;; Parameters:    Size  Location     Type
  3537 ;;  divisor         2    0[COMMON] unsigned int 
  3538 ;;  dividend        2    2[COMMON] unsigned int 
  3539 ;; Auto vars:     Size  Location     Type
  3540 ;;  quotient        2    5[COMMON] unsigned int 
  3541 ;;  counter         1    7[COMMON] unsigned char 
  3542 ;; Return value:  Size  Location     Type
  3543 ;;                  2    0[COMMON] unsigned int 
  3544 ;; Registers used:
  3545 ;;		wreg, status,2, status,0
  3546 ;; Tracked objects:
  3547 ;;		On entry : 0/0
  3548 ;;		On exit  : 0/0
  3549 ;;		Unchanged: 0/0
  3550 ;; Data sizes:     COMMON   BANK0   BANK1   BANK2
  3551 ;;      Params:         4       0       0       0
  3552 ;;      Locals:         3       0       0       0
  3553 ;;      Temps:          1       0       0       0
  3554 ;;      Totals:         8       0       0       0
  3555 ;;Total ram usage:        8 bytes
  3556 ;; Hardware stack levels used:    1
  3557 ;; This function calls:
  3558 ;;		Nothing
  3559 ;; This function is called by:
  3560 ;;		_printf
  3561 ;; This function uses a non-reentrant model
  3562 ;;
  3563                           psect	text523
  3564                           	file	"C:\Program Files (x86)\HI-TECH Software\PICC\9.83\sources\lwdiv.c"
  3565                           	line	5
  3566                           	global	__size_of___lwdiv
  3567  004E                     	__size_of___lwdiv	equ	__end_of___lwdiv-___lwdiv
  3568                           	
  3569  020A                     ___lwdiv:	
  3570                           	opt	stack 1
  3571                           ; Regs used in ___lwdiv: [wreg+status,2+status,0]
  3572                           	line	9
  3573                           	
  3574  020A                     i1l3641:	
  3575  020A  01F5               	clrf	(___lwdiv@quotient)
  3576  020B  01F6               	clrf	(___lwdiv@quotient+1)
  3577                           	line	10
  3578                           	
  3579  020C                     i1l3643:	
  3580  020C  0871               	movf	(___lwdiv@divisor+1),w
  3581  020D  0470               	iorwf	(___lwdiv@divisor),w
  3582  020E  1903               	skipnz
  3583  020F  2A11               	goto	u273_21
  3584  0210  2A12               	goto	u273_20
  3585  0211                     u273_21:
  3586  0211  2A50               	goto	i1l3663
  3587  0212                     u273_20:
  3588                           	line	11
  3589                           	
  3590  0212                     i1l3645:	
  3591  0212  01F7               	clrf	(___lwdiv@counter)
  3592  0213  1403               	bsf	status,0
  3593  0214  0DF7               	rlf	(___lwdiv@counter),f
  3594                           	line	12
  3595  0215  2A22               	goto	i1l3651
  3596                           	
  3597  0216                     i1l1885:	
  3598                           	line	13
  3599                           	
  3600  0216                     i1l3647:	
  3601  0216  3001               	movlw	01h
  3602                           	
  3603  0217                     u274_25:
  3604  0217  1003               	clrc
  3605  0218  0DF0               	rlf	(___lwdiv@divisor),f
  3606  0219  0DF1               	rlf	(___lwdiv@divisor+1),f
  3607  021A  3EFF               	addlw	-1
  3608  021B  1D03               	skipz
  3609  021C  2A17               	goto	u274_25
  3610                           	line	14
  3611                           	
  3612  021D                     i1l3649:	
  3613  021D  3001               	movlw	(01h)
  3614  021E  00F4               	movwf	(??___lwdiv+0)+0
  3615  021F  0874               	movf	(??___lwdiv+0)+0,w
  3616  0220  07F7               	addwf	(___lwdiv@counter),f
  3617  0221  2A22               	goto	i1l3651
  3618                           	line	15
  3619                           	
  3620  0222                     i1l1884:	
  3621                           	line	12
  3622                           	
  3623  0222                     i1l3651:	
  3624  0222  1FF1               	btfss	(___lwdiv@divisor+1),(15)&7
  3625  0223  2A25               	goto	u275_21
  3626  0224  2A26               	goto	u275_20
  3627  0225                     u275_21:
  3628  0225  2A16               	goto	i1l3647
  3629  0226                     u275_20:
  3630  0226  2A28               	goto	i1l3653
  3631                           	
  3632  0227                     i1l1886:	
  3633  0227  2A28               	goto	i1l3653
  3634                           	line	16
  3635                           	
  3636  0228                     i1l1887:	
  3637                           	line	17
  3638                           	
  3639  0228                     i1l3653:	
  3640  0228  3001               	movlw	01h
  3641                           	
  3642  0229                     u276_25:
  3643  0229  1003               	clrc
  3644  022A  0DF5               	rlf	(___lwdiv@quotient),f
  3645  022B  0DF6               	rlf	(___lwdiv@quotient+1),f
  3646  022C  3EFF               	addlw	-1
  3647  022D  1D03               	skipz
  3648  022E  2A29               	goto	u276_25
  3649                           	line	18
  3650  022F  0871               	movf	(___lwdiv@divisor+1),w
  3651  0230  0273               	subwf	(___lwdiv@dividend+1),w
  3652  0231  1D03               	skipz
  3653  0232  2A35               	goto	u277_25
  3654  0233  0870               	movf	(___lwdiv@divisor),w
  3655  0234  0272               	subwf	(___lwdiv@dividend),w
  3656  0235                     u277_25:
  3657  0235  1C03               	skipc
  3658  0236  2A38               	goto	u277_21
  3659  0237  2A39               	goto	u277_20
  3660  0238                     u277_21:
  3661  0238  2A41               	goto	i1l3659
  3662  0239                     u277_20:
  3663                           	line	19
  3664                           	
  3665  0239                     i1l3655:	
  3666  0239  0870               	movf	(___lwdiv@divisor),w
  3667  023A  02F2               	subwf	(___lwdiv@dividend),f
  3668  023B  0871               	movf	(___lwdiv@divisor+1),w
  3669  023C  1C03               	skipc
  3670  023D  03F3               	decf	(___lwdiv@dividend+1),f
  3671  023E  02F3               	subwf	(___lwdiv@dividend+1),f
  3672                           	line	20
  3673                           	
  3674  023F                     i1l3657:	
  3675  023F  1475               	bsf	(___lwdiv@quotient)+(0/8),(0)&7
  3676  0240  2A41               	goto	i1l3659
  3677                           	line	21
  3678                           	
  3679  0241                     i1l1888:	
  3680                           	line	22
  3681                           	
  3682  0241                     i1l3659:	
  3683  0241  3001               	movlw	01h
  3684                           	
  3685  0242                     u278_25:
  3686  0242  1003               	clrc
  3687  0243  0CF1               	rrf	(___lwdiv@divisor+1),f
  3688  0244  0CF0               	rrf	(___lwdiv@divisor),f
  3689  0245  3EFF               	addlw	-1
  3690  0246  1D03               	skipz
  3691  0247  2A42               	goto	u278_25
  3692                           	line	23
  3693                           	
  3694  0248                     i1l3661:	
  3695  0248  3001               	movlw	low(01h)
  3696  0249  02F7               	subwf	(___lwdiv@counter),f
  3697  024A  1D03               	btfss	status,2
  3698  024B  2A4D               	goto	u279_21
  3699  024C  2A4E               	goto	u279_20
  3700  024D                     u279_21:
  3701  024D  2A28               	goto	i1l3653
  3702  024E                     u279_20:
  3703  024E  2A50               	goto	i1l3663
  3704                           	
  3705  024F                     i1l1889:	
  3706  024F  2A50               	goto	i1l3663
  3707                           	line	24
  3708                           	
  3709  0250                     i1l1883:	
  3710                           	line	25
  3711                           	
  3712  0250                     i1l3663:	
  3713  0250  0876               	movf	(___lwdiv@quotient+1),w
  3714  0251  01F1               	clrf	(?___lwdiv+1)
  3715  0252  07F1               	addwf	(?___lwdiv+1)
  3716  0253  0875               	movf	(___lwdiv@quotient),w
  3717  0254  01F0               	clrf	(?___lwdiv)
  3718  0255  07F0               	addwf	(?___lwdiv)
  3719                           
  3720  0256  2A57               	goto	i1l1890
  3721                           	
  3722  0257                     i1l3665:	
  3723                           	line	26
  3724                           	
  3725  0257                     i1l1890:	
  3726  0257  0008               	return
  3727                           	opt stack 0
  3728                           GLOBAL	__end_of___lwdiv
  3729  0258                     	__end_of___lwdiv:
  3730 ;; =============== function ___lwdiv ends ============
  3731                           
  3732                           	signat	___lwdiv,8314
  3733                           psect	text524,local,class=CODE,delta=2
  3734                           global __ptext524
  3735  0000                     __ptext524:
  3736                           	global	btemp
  3737  007E                     	btemp set 07Eh
  3738                           
  3739                           	DABS	1,126,2	;btemp
  3740                           	global	wtemp0
  3741  007E                     	wtemp0 set btemp


HI-TECH Software PICC Macro Assembler V9.83 build 10920 
Symbol Table                                                                                   Tue Nov 17 16:45:39 2015

                   pc 0002                    _RD 0C60                    _WR 0C61                    fsr 0004  
                 l911 0410                   l914 033D                   l940 01B9                   l917 03C2  
                 l950 0312                   l951 02F8                   l952 0311                   l953 0304  
                 l954 0310                   l946 0384                   l955 030F                   l956 0312  
                 l980 039B                   l949 02F0                   l974 03F2                   l983 0287  
                 l984 0294                   l977 03E3                   l985 029E                   l986 029F  
                 l987 02A0                   _GIE 005F                   l988 02A0                   _RA4 002C  
                 _RC6 003E                   _RC7 003F                   _PR2 0092                   _RX9 00C6  
                 _TX9 04C6                   fsr0 0004                   indf 0000           lcd_goto@pos 0073  
                l3501 02F6                  l3511 030A                  l3503 02F8                  l3513 030B  
                l3505 02FE                  l3507 02FF                  l3603 03E4                  l3611 03D8  
                l3509 0304                  l3605 03E8                  l3613 03DC                  l3621 038A  
                l3607 03E9                  l3615 03E0                  l3631 0394                  l3623 038B  
                l3711 0367                  l3617 03E2                  l3609 03D4                  l3633 0395  
                l3625 038D                  l3713 0381                  l3721 0329                  l3801 029A  
                l3635 0396                  l3627 0390                  l3619 0385                  l3715 0382  
                l3723 032F                  l3731 03B3                  l3637 0397                  l3629 0393  
                l3709 0409                  l3725 0334                  l3717 0316                  l3733 03B7  
                l3741 017A                  l3495 02E6                  l3639 039A                  l3727 0337  
                l3719 0326                  l3751 019A                  l3743 017D                  l3735 0165  
                l3497 02EE                  l3729 03B0                  l3761 01AE                  l3753 01A0  
                l3745 0187                  l3737 0170                  l3499 02F0                  l3763 01B2  
                l3755 01A1                  l3747 018D                  l3739 0176                  l3771 025F  
                l3765 01B6                  l3757 01A4                  l3749 0194                  l3781 026D  
                l3773 0264                  l3759 01AA                  l3791 027C                  l3783 0270  
                l3775 0265                  l3767 0258                  l3793 0287                  l3785 0273  
                l3777 0266                  l3769 025C                  l3795 028D                  l3787 0276  
                l3779 026B                  l3797 0290                  l3789 0279                  l3799 0294  
                STR_1 03AC                  _BRGH 04C2                  _CREN 00C4                  _FERR 00C2  
                u2510 02EE                  u2511 02ED                  u2520 02F6                  u2521 02F5  
                u2530 02FE                  u2531 02FD                  u2540 030A                  u2541 0309  
                u2907 0282                  _PEIE 005E                  u2917 016B                  _INTF 0059  
                u2927 0183                  u2880 028D                  u2937 0198                  u2881 028C  
                u2890 029A                  u2875 031D                  u2947 01A8                  _RCIE 0465  
                _RCIF 0065                  u2957 03BD                  u2967 033B                  u2977 036B  
                u2987 0378                  _OERR 00C1                  _TMR1 000E                  _TMR2 0011  
                _SPEN 00C7                  _TXIE 0464                  _WREN 0C62                  _TXEN 04C5  
                _SYNC 04C4       __end_of_T1_init 03F3       __end_of_T2_init 03E4       __end_ofi1_Clear 03D4  
                _flag 0041                  _cont 003D                  _main 0258                  _lixo 0042  
                _send 0367                  btemp 007E       __end_ofi1_Write 0367                  start 0011  
               ?_main 0070                 _EEADR 010D                 ?_send 0070                 _BRG16 04DB  
               _CARRY 0018                 _ANSEL 011E                 _T1CON 0010                 _T2CON 0012  
     __end_of___lwdiv 0258       __end_of___lwmod 02E6                 i1l911 0418                 i1l914 0366  
               i1l930 01C5                 i1l931 01CD                 i1l932 01E3                 i1l917 03D3  
               i1l933 01EF                 i1l926 01F8                 i1l934 0209                 i1l927 01BC  
               i1l943 041E                 i1l928 0209                 i1l960 00FB                 i1l937 0408  
               i1l929 01C0                 i1l961 0105                 i1l970 0155                 i1l962 0104  
               i1l971 0159                 i1l963 0125                 i1l964 011A                 i1l965 0121  
               i1l966 0159                 i1l967 013B                 i1l959 0107                 i1l968 0156  
               i1l969 0142                 i1l999 00D8                 _RCREG 001A                 _SPBRG 0099  
               _PORTA 0005                 _PORTB 0006                 _PORTC 0007                 _TRISA 0085  
               _TRISB 0086                 _TRISC 0087                 _Clear 03B0      __end_ofi1_Enable 0419  
               _Write 0313                 _testa 0502                 _putch 0419                 pclath 000A  
               status 0003                 wtemp0 007E          __end_of_main 02A2          __end_of_send 0385  
              ??_main 003B                ??_send 0034                ?_Clear 0070             ??_T1_init 0034  
              ?_Write 0070             ??_T2_init 0034             ??i1_Clear 0073                _EEDATA 010C  
              _CCPR1L 0015                _EECON1 018C                _EECON2 018D             ??i1_Write 0070  
              ?_putch 0070                _ANSELH 011F                i1l1000 001B                i1l1001 0026  
              i1l1010 0065                i1l1002 002D                i1l1011 0089                i1l1003 0028  
              i1l1004 00EC                i1l1012 007E                i1l1013 0094                i1l1005 0029  
              i1l1014 00CA                i1l1006 002A                i1l1015 009B                i1l1007 0040  
              i1l1016 00D7                i1l1008 002B                i1l1017 00EB                i1l1009 005A  
              i1l1018 00EC                i1l1900 02E5                i1l3601 00D8                i1l3521 00FB  
              i1l3531 010D                i1l3523 0100                i1l3515 00ED                i1l3701 0362  
              i1l3541 012A                i1l3533 0111                i1l3525 0105                i1l3517 00F1  
              i1l3703 03C3                i1l3471 01C0                i1l3551 0146                i1l3543 0130  
              i1l3535 0118                i1l3519 00F6                i1l3527 0107                i1l3641 020A  
              i1l3705 03C6                i1l3481 01E6                i1l3473 01C8                i1l3561 0021  
              i1l3553 0151                i1l3545 0136                i1l3537 011A                i1l3529 010C  
              i1l1890 0257                i1l1883 0250                i1l3651 0222                i1l3643 020C  
              i1l3491 0403                i1l3707 03CA                i1l3483 01F2                i1l3475 01D0  
              i1l3467 01BB                i1l3571 004C                i1l3563 002C                i1l3547 013F  
              i1l3555 0156                i1l3539 0120                i1l1884 0222                i1l3661 0248  
              i1l3653 0228                i1l1885 0216                i1l3645 0212                i1l1893 02DE  
              i1l3485 01F7                i1l3477 01D4                i1l3469 01BC                i1l3493 041A  
              i1l3581 0064                i1l3573 0050                i1l3565 002D                i1l3557 0016  
              i1l3549 0142                i1l1886 0227                i1l1894 02B8                i1l3655 0239  
              i1l1887 0228                i1l3647 0216                i1l3663 0250                i1l3671 02AC  
              i1l1895 02AC                i1l3479 01DB                i1l3487 01F8                i1l3591 0089  
              i1l3583 0065                i1l3575 0054                i1l3567 0040                i1l3559 001B  
              i1l1888 0241                i1l1896 02BD                i1l3665 0257                i1l1889 024F  
              i1l3657 023F                i1l3649 021D                i1l3681 02CF                i1l1897 02BE  
              i1l3673 02B3                i1l3489 0400                i1l3593 008F                i1l3585 007D  
              i1l3577 005A                i1l3569 0048                i1l1898 02CF                i1l3659 0241  
              i1l1899 02DD                i1l3683 02D6                i1l3675 02B8                i1l3667 02A2  
              i1l3691 033F                i1l3595 0094                i1l3587 007E                i1l3579 005D  
              i1l3677 02BE                i1l3669 02A8                i1l3685 02DE                i1l3693 0351  
              i1l3597 009B                i1l3589 0082                i1l3687 02E5                i1l3679 02C8  
              u300_27 0364                i1l3695 0354                i1l3599 00CA                i1l3689 0411  
              i1l3697 035A                i1l3699 035F                _INTEDG 040E                _INTCON 000B  
              u260_20 0120                u260_21 011F                u261_20 012A                u261_21 0129  
              u270_20 008F                u262_20 0130                u270_21 008E                u262_21 012F  
              u271_20 00D6                u263_20 0136                u255_20 00F1                u271_21 00D5  
              u263_21 0135                u255_21 00F0                u280_20 02A8                u272_20 00EA  
              u264_20 013F                u256_20 00F6                u280_21 02A7                u272_21 00E9  
              u264_21 013E                u256_21 00F5                u273_20 0212                u265_20 0021  
              u257_20 0100                u273_21 0211                u265_21 0020                u281_25 02AD  
              u282_20 02BC                u266_20 0050                u258_20 010C                u282_21 02BB  
              u266_21 004F                u258_21 010B                u274_25 0217                u275_20 0226  
              u283_20 02C8                u267_20 0063                u259_20 0118                u275_21 0225  
              u283_21 02C7                u267_21 0062                u259_21 0117                u283_25 02C4  
              u268_20 007C                u268_21 007B                u276_25 0229                u284_25 02D0  
              u268_25 0078                u277_20 0239                u285_20 02DC                u269_20 0088  
              u277_21 0238                u285_21 02DB                u269_21 0087                u277_25 0235  
              u278_25 0242                u286_25 0348                u279_20 024E                u279_21 024D  
              _OSCCON 008F                u299_27 03CE                _TMR1IE 0460                _TMR1IF 0060  
              _SPBRGH 009A                _TMR1ON 0080                _TMR2ON 0092                _Enable 0409  
        ?_serial_init 0070      __end_of_lcd_init 01BA      __end_of_lcd_goto 0409      __end_of_lcd_putc 020A  
              Write@c 0036             ??___lwdiv 0074             ??___lwmod 007C                _enviar 0040  
              _printf 0013                saved_w 007E                putch@c 0076      __end_of_protocol 0313  
       __end_of_Clear 03C3        __pcstackCOMMON 0070         __end_of_Write 033E             ?i1_Enable 0070  
       __end_of_putch 041F               ??_Clear 0037               ??_Write 0034               ??_putch 0076  
          __pbssBANK0 003D               ?_Enable 0070            __pmaintext 0258            ??i1_Enable 0070  
          __pintentry 0004               _CCP1CON 0017               ?_printf 0020               _T1_init 03E4  
             _T2_init 03D4               i1_Clear 03C3             ?_lcd_init 0070             ?_lcd_goto 0070  
           ?_lcd_putc 0070               i1_Write 033E       __size_of_Enable 0008               ___lwdiv 020A  
             ___lwmod 02A2             ?_protocol 0070  __size_of_serial_init 0017               _dado_rx 003E  
             _bt_flag 0500       __size_of_printf 00DA               _dpowers 03A2               _recebeu 0501  
          _interrupts 00ED            ??_lcd_init 0039            ??_lcd_goto 0073            ??_lcd_putc 0075  
end_of_initialization 03FC               printf@c 002D               printf@f 0027            ??_protocol 0034  
      __end_of_Enable 0411     __size_ofi1_Enable 0008         __pbitbssBANK1 0500        __end_of_printf 00ED  
 start_initialization 03F3           ?_interrupts 0070              ??_Enable 0034              ??_printf 0022  
       __pcstackBANK0 0020              ?_T1_init 0070              ?_T2_init 0070              ?i1_Clear 0070  
            ?i1_Write 0070     __size_of_lcd_init 0055     __size_of_lcd_goto 000A     __size_of_lcd_putc 0050  
    ___lwdiv@dividend 0072   __size_of_interrupts 0078             __ptext510 0385             __ptext511 03D4  
           __ptext520 033E             __ptext512 03E4             __ptext521 0411             __ptext513 02E6  
           __ptext505 0165             __ptext522 02A2             __ptext514 00ED             __ptext506 03B0  
           __ptext523 020A             __ptext515 0013             __ptext507 0313             __ptext524 0000  
           __ptext516 0419             __ptext508 0367             __ptext517 01BA             __ptext509 0409  
           __ptext518 03C3             __ptext519 03FF              ?___lwdiv 0070              ?___lwmod 0078  
           __pstrings 039C     __size_of_protocol 002D        __size_of_Clear 0013        __size_of_Write 002B  
    ___lwdiv@quotient 0075        __size_of_putch 0006     interrupt_function 0004         ??_serial_init 0034  
            i1_Enable 0411           __stringbase 03A1              i1Write@c 0072            printf@_val 0029  
          printf@flag 0026            printf@prec 0028             lcd_putc@c 0075      __size_of_T1_init 000F  
    __size_of_T2_init 0010      __size_ofi1_Clear 0011      __size_ofi1_Write 0029      __size_of___lwdiv 004E  
    __size_of___lwmod 0044   __end_of_serial_init 039C       ___lwdiv@divisor 0070          ??_interrupts 002E  
     ___lwdiv@counter 0077              _lcd_init 0165              _lcd_goto 03FF              _lcd_putc 01BA  
            _enviando 003F         __size_of_main 004A         __size_of_send 001E    __end_of_interrupts 0165  
            _protocol 02E6              intlevel1 0000      ___lwmod@dividend 007A             stringcode 039C  
         _serial_init 0385              printf@ap 0025       ___lwmod@divisor 0078       ___lwmod@counter 007D  
            stringdir 039C              stringtab 039C  
